ARM GAS  C:\Users\84935\AppData\Local\Temp\ccvgNpob.s 			page 1


   1              		.cpu cortex-m3
   2              		.arch armv7-m
   3              		.fpu softvfp
   4              		.eabi_attribute 20, 1
   5              		.eabi_attribute 21, 1
   6              		.eabi_attribute 23, 3
   7              		.eabi_attribute 24, 1
   8              		.eabi_attribute 25, 1
   9              		.eabi_attribute 26, 1
  10              		.eabi_attribute 30, 1
  11              		.eabi_attribute 34, 1
  12              		.eabi_attribute 18, 4
  13              		.file	"main.c"
  14              		.text
  15              	.Ltext0:
  16              		.cfi_sections	.debug_frame
  17              		.section	.text.MX_GPIO_Init,"ax",%progbits
  18              		.align	1
  19              		.syntax unified
  20              		.thumb
  21              		.thumb_func
  23              	MX_GPIO_Init:
  24              	.LFB77:
  25              		.file 1 "Core/Src/main.c"
   1:Core/Src/main.c **** /* USER CODE BEGIN Header */
   2:Core/Src/main.c **** /**
   3:Core/Src/main.c ****   ******************************************************************************
   4:Core/Src/main.c ****   * @file           : main.c
   5:Core/Src/main.c ****   * @brief          : Main program body
   6:Core/Src/main.c ****   ******************************************************************************
   7:Core/Src/main.c ****   * @attention
   8:Core/Src/main.c ****   *
   9:Core/Src/main.c ****   * Copyright (c) 2023 STMicroelectronics.
  10:Core/Src/main.c ****   * All rights reserved.
  11:Core/Src/main.c ****   *
  12:Core/Src/main.c ****   * This software is licensed under terms that can be found in the LICENSE file
  13:Core/Src/main.c ****   * in the root directory of this software component.
  14:Core/Src/main.c ****   * If no LICENSE file comes with this software, it is provided AS-IS.
  15:Core/Src/main.c ****   *
  16:Core/Src/main.c ****   ******************************************************************************
  17:Core/Src/main.c ****   */
  18:Core/Src/main.c **** /* USER CODE END Header */
  19:Core/Src/main.c **** /* Includes ------------------------------------------------------------------*/
  20:Core/Src/main.c **** #include "main.h"
  21:Core/Src/main.c **** #include <stdlib.h>
  22:Core/Src/main.c **** #include <stdio.h>
  23:Core/Src/main.c **** #include <string.h>
  24:Core/Src/main.c **** #include "../../ECUAL/StepMotor/StepMotor.h"
  25:Core/Src/main.c **** 
  26:Core/Src/main.c **** UART_HandleTypeDef huart1;
  27:Core/Src/main.c **** DMA_HandleTypeDef hdma_usart1_rx;
  28:Core/Src/main.c **** 
  29:Core/Src/main.c **** void SystemClock_Config(void);
  30:Core/Src/main.c **** static void MX_GPIO_Init(void);
  31:Core/Src/main.c **** static void MX_DMA_Init(void);
  32:Core/Src/main.c **** static void MX_USART1_UART_Init(void);
  33:Core/Src/main.c **** void commandExec(uint16_t data_size);
ARM GAS  C:\Users\84935\AppData\Local\Temp\ccvgNpob.s 			page 2


  34:Core/Src/main.c **** 
  35:Core/Src/main.c **** // Define the length of the receive buffer
  36:Core/Src/main.c **** #define BUFFER_SIZE 5
  37:Core/Src/main.c **** uint8_t rcv_buffer[BUFFER_SIZE] = {0};
  38:Core/Src/main.c **** uint8_t send_msg[30];
  39:Core/Src/main.c **** 
  40:Core/Src/main.c **** uint8_t mode = 0;
  41:Core/Src/main.c **** uint8_t command;
  42:Core/Src/main.c **** // The initial direction of the motor
  43:Core/Src/main.c **** uint8_t dir = 1;
  44:Core/Src/main.c **** 
  45:Core/Src/main.c **** int main(void)
  46:Core/Src/main.c **** {
  47:Core/Src/main.c ****   // System initialization
  48:Core/Src/main.c ****   HAL_Init();
  49:Core/Src/main.c ****   SystemClock_Config();
  50:Core/Src/main.c ****   MX_GPIO_Init();
  51:Core/Src/main.c ****   MX_DMA_Init();
  52:Core/Src/main.c ****   MX_USART1_UART_Init();
  53:Core/Src/main.c ****   
  54:Core/Src/main.c ****   // Initiate the delay module
  55:Core/Src/main.c ****   DWT_Delay_Init();
  56:Core/Src/main.c **** 
  57:Core/Src/main.c ****   // Configure the USART DMA module
  58:Core/Src/main.c ****   HAL_UARTEx_ReceiveToIdle_DMA(&huart1, rcv_buffer, BUFFER_SIZE);
  59:Core/Src/main.c ****   // Disable the half transfer interrupt
  60:Core/Src/main.c ****   __HAL_DMA_DISABLE_IT(&hdma_usart1_rx, DMA_IT_HT);
  61:Core/Src/main.c ****   // Initiate the step motor connection
  62:Core/Src/main.c ****   stepInit();
  63:Core/Src/main.c **** 
  64:Core/Src/main.c ****   while (1)
  65:Core/Src/main.c ****   {
  66:Core/Src/main.c ****     if(mode == speed)
  67:Core/Src/main.c ****     {
  68:Core/Src/main.c ****       command = rcv_buffer[0];
  69:Core/Src/main.c ****       speedCtrl(command);
  70:Core/Src/main.c ****     }   
  71:Core/Src/main.c ****   }
  72:Core/Src/main.c ****   /* USER CODE END 3 */
  73:Core/Src/main.c ****   return 0;
  74:Core/Src/main.c **** }
  75:Core/Src/main.c **** 
  76:Core/Src/main.c **** // Function to handle external interrupt callback
  77:Core/Src/main.c **** void HAL_GPIO_EXTI_Callback(uint16_t GPIO_Pin)
  78:Core/Src/main.c **** {
  79:Core/Src/main.c ****   if(GPIO_Pin == STOP)
  80:Core/Src/main.c ****     brake();
  81:Core/Src/main.c **** }
  82:Core/Src/main.c **** 
  83:Core/Src/main.c **** // Function to handle USART interrupt callback
  84:Core/Src/main.c **** void HAL_UARTEx_RxEventCallback(UART_HandleTypeDef *huart, uint16_t Size)
  85:Core/Src/main.c **** {
  86:Core/Src/main.c ****   // Check if data come on USART1 channel
  87:Core/Src/main.c ****   if(huart->Instance == USART1)
  88:Core/Src/main.c ****   {
  89:Core/Src/main.c ****     // Send back receive messagefor debugging
  90:Core/Src/main.c ****     sprintf(send_msg,"Received: %s Size: %u\r\n",rcv_buffer,Size);
ARM GAS  C:\Users\84935\AppData\Local\Temp\ccvgNpob.s 			page 3


  91:Core/Src/main.c ****     HAL_UART_Transmit(huart, send_msg, strlen(send_msg), 100);
  92:Core/Src/main.c **** 
  93:Core/Src/main.c ****     // Restart the receipt
  94:Core/Src/main.c ****     HAL_UARTEx_ReceiveToIdle_DMA(&huart1, rcv_buffer, BUFFER_SIZE);
  95:Core/Src/main.c ****     __HAL_DMA_DISABLE_IT(&hdma_usart1_rx, DMA_IT_HT);
  96:Core/Src/main.c **** 
  97:Core/Src/main.c ****     // Hadling the command from PC
  98:Core/Src/main.c ****     commandExec(Size); 
  99:Core/Src/main.c ****   }
 100:Core/Src/main.c **** }
 101:Core/Src/main.c **** 
 102:Core/Src/main.c **** // Function to handle the command from PC
 103:Core/Src/main.c **** void commandExec(uint16_t data_size)
 104:Core/Src/main.c **** {
 105:Core/Src/main.c ****   if(data_size == 1)
 106:Core/Src/main.c ****   {
 107:Core/Src/main.c ****     if(rcv_buffer[0] == direc)
 108:Core/Src/main.c ****       changeDir(&dir);
 109:Core/Src/main.c ****     else if(rcv_buffer[0] == speed1 || rcv_buffer[0] == speed2 || rcv_buffer[0] == speed3)
 110:Core/Src/main.c ****       mode = speed;
 111:Core/Src/main.c ****     else
 112:Core/Src/main.c ****       HAL_UART_Transmit(&huart1, (char*)"Invalid command!\r\n", 18, 100);
 113:Core/Src/main.c ****   }
 114:Core/Src/main.c ****   else
 115:Core/Src/main.c ****   {
 116:Core/Src/main.c ****     mode = pos;
 117:Core/Src/main.c ****     positionCtrl(angle2Step(atoi(rcv_buffer)));
 118:Core/Src/main.c ****   }
 119:Core/Src/main.c **** }
 120:Core/Src/main.c **** 
 121:Core/Src/main.c **** /**
 122:Core/Src/main.c ****   * @brief System Clock Configuration
 123:Core/Src/main.c ****   * @retval None
 124:Core/Src/main.c ****   */
 125:Core/Src/main.c **** void SystemClock_Config(void)
 126:Core/Src/main.c **** {
 127:Core/Src/main.c ****   RCC_OscInitTypeDef RCC_OscInitStruct = {0};
 128:Core/Src/main.c ****   RCC_ClkInitTypeDef RCC_ClkInitStruct = {0};
 129:Core/Src/main.c **** 
 130:Core/Src/main.c ****   /** Initializes the RCC Oscillators according to the specified parameters
 131:Core/Src/main.c ****   * in the RCC_OscInitTypeDef structure.
 132:Core/Src/main.c ****   */
 133:Core/Src/main.c ****   RCC_OscInitStruct.OscillatorType = RCC_OSCILLATORTYPE_HSE;
 134:Core/Src/main.c ****   RCC_OscInitStruct.HSEState = RCC_HSE_ON;
 135:Core/Src/main.c ****   RCC_OscInitStruct.HSEPredivValue = RCC_HSE_PREDIV_DIV1;
 136:Core/Src/main.c ****   RCC_OscInitStruct.HSIState = RCC_HSI_ON;
 137:Core/Src/main.c ****   RCC_OscInitStruct.PLL.PLLState = RCC_PLL_ON;
 138:Core/Src/main.c ****   RCC_OscInitStruct.PLL.PLLSource = RCC_PLLSOURCE_HSE;
 139:Core/Src/main.c ****   RCC_OscInitStruct.PLL.PLLMUL = RCC_PLL_MUL9;
 140:Core/Src/main.c ****   if (HAL_RCC_OscConfig(&RCC_OscInitStruct) != HAL_OK)
 141:Core/Src/main.c ****   {
 142:Core/Src/main.c ****     Error_Handler();
 143:Core/Src/main.c ****   }
 144:Core/Src/main.c **** 
 145:Core/Src/main.c ****   /** Initializes the CPU, AHB and APB buses clocks
 146:Core/Src/main.c ****   */
 147:Core/Src/main.c ****   RCC_ClkInitStruct.ClockType = RCC_CLOCKTYPE_HCLK|RCC_CLOCKTYPE_SYSCLK
ARM GAS  C:\Users\84935\AppData\Local\Temp\ccvgNpob.s 			page 4


 148:Core/Src/main.c ****                               |RCC_CLOCKTYPE_PCLK1|RCC_CLOCKTYPE_PCLK2;
 149:Core/Src/main.c ****   RCC_ClkInitStruct.SYSCLKSource = RCC_SYSCLKSOURCE_PLLCLK;
 150:Core/Src/main.c ****   RCC_ClkInitStruct.AHBCLKDivider = RCC_SYSCLK_DIV1;
 151:Core/Src/main.c ****   RCC_ClkInitStruct.APB1CLKDivider = RCC_HCLK_DIV2;
 152:Core/Src/main.c ****   RCC_ClkInitStruct.APB2CLKDivider = RCC_HCLK_DIV1;
 153:Core/Src/main.c **** 
 154:Core/Src/main.c ****   if (HAL_RCC_ClockConfig(&RCC_ClkInitStruct, FLASH_LATENCY_2) != HAL_OK)
 155:Core/Src/main.c ****   {
 156:Core/Src/main.c ****     Error_Handler();
 157:Core/Src/main.c ****   }
 158:Core/Src/main.c **** }
 159:Core/Src/main.c **** 
 160:Core/Src/main.c **** /**
 161:Core/Src/main.c ****   * @brief USART1 Initialization Function
 162:Core/Src/main.c ****   * @param None
 163:Core/Src/main.c ****   * @retval None
 164:Core/Src/main.c ****   */
 165:Core/Src/main.c **** static void MX_USART1_UART_Init(void)
 166:Core/Src/main.c **** {
 167:Core/Src/main.c **** 
 168:Core/Src/main.c ****   /* USER CODE BEGIN USART1_Init 0 */
 169:Core/Src/main.c **** 
 170:Core/Src/main.c ****   /* USER CODE END USART1_Init 0 */
 171:Core/Src/main.c **** 
 172:Core/Src/main.c ****   /* USER CODE BEGIN USART1_Init 1 */
 173:Core/Src/main.c **** 
 174:Core/Src/main.c ****   /* USER CODE END USART1_Init 1 */
 175:Core/Src/main.c ****   huart1.Instance = USART1;
 176:Core/Src/main.c ****   huart1.Init.BaudRate = 9600;
 177:Core/Src/main.c ****   huart1.Init.WordLength = UART_WORDLENGTH_8B;
 178:Core/Src/main.c ****   huart1.Init.StopBits = UART_STOPBITS_1;
 179:Core/Src/main.c ****   huart1.Init.Parity = UART_PARITY_NONE;
 180:Core/Src/main.c ****   huart1.Init.Mode = UART_MODE_TX_RX;
 181:Core/Src/main.c ****   huart1.Init.HwFlowCtl = UART_HWCONTROL_NONE;
 182:Core/Src/main.c ****   huart1.Init.OverSampling = UART_OVERSAMPLING_16;
 183:Core/Src/main.c ****   if (HAL_UART_Init(&huart1) != HAL_OK)
 184:Core/Src/main.c ****   {
 185:Core/Src/main.c ****     Error_Handler();
 186:Core/Src/main.c ****   }
 187:Core/Src/main.c ****   /* USER CODE BEGIN USART1_Init 2 */
 188:Core/Src/main.c **** 
 189:Core/Src/main.c ****   /* USER CODE END USART1_Init 2 */
 190:Core/Src/main.c **** 
 191:Core/Src/main.c **** }
 192:Core/Src/main.c **** 
 193:Core/Src/main.c **** /**
 194:Core/Src/main.c ****   * Enable DMA controller clock
 195:Core/Src/main.c ****   */
 196:Core/Src/main.c **** static void MX_DMA_Init(void)
 197:Core/Src/main.c **** {
 198:Core/Src/main.c **** 
 199:Core/Src/main.c ****   /* DMA controller clock enable */
 200:Core/Src/main.c ****   __HAL_RCC_DMA1_CLK_ENABLE();
 201:Core/Src/main.c **** 
 202:Core/Src/main.c ****   /* DMA interrupt init */
 203:Core/Src/main.c ****   /* DMA1_Channel5_IRQn interrupt configuration */
 204:Core/Src/main.c ****   HAL_NVIC_SetPriority(DMA1_Channel5_IRQn, 0, 0);
ARM GAS  C:\Users\84935\AppData\Local\Temp\ccvgNpob.s 			page 5


 205:Core/Src/main.c ****   HAL_NVIC_EnableIRQ(DMA1_Channel5_IRQn);
 206:Core/Src/main.c **** 
 207:Core/Src/main.c **** }
 208:Core/Src/main.c **** 
 209:Core/Src/main.c **** /**
 210:Core/Src/main.c ****   * @brief GPIO Initialization Function
 211:Core/Src/main.c ****   * @param None
 212:Core/Src/main.c ****   * @retval None
 213:Core/Src/main.c ****   */
 214:Core/Src/main.c **** static void MX_GPIO_Init(void)
 215:Core/Src/main.c **** {
  26              		.loc 1 215 1 view -0
  27              		.cfi_startproc
  28              		@ args = 0, pretend = 0, frame = 32
  29              		@ frame_needed = 0, uses_anonymous_args = 0
  30 0000 30B5     		push	{r4, r5, lr}
  31              	.LCFI0:
  32              		.cfi_def_cfa_offset 12
  33              		.cfi_offset 4, -12
  34              		.cfi_offset 5, -8
  35              		.cfi_offset 14, -4
  36 0002 89B0     		sub	sp, sp, #36
  37              	.LCFI1:
  38              		.cfi_def_cfa_offset 48
 216:Core/Src/main.c ****   GPIO_InitTypeDef GPIO_InitStruct = {0};
  39              		.loc 1 216 3 view .LVU1
  40              		.loc 1 216 20 is_stmt 0 view .LVU2
  41 0004 0024     		movs	r4, #0
  42 0006 0494     		str	r4, [sp, #16]
  43 0008 0594     		str	r4, [sp, #20]
  44 000a 0694     		str	r4, [sp, #24]
  45 000c 0794     		str	r4, [sp, #28]
 217:Core/Src/main.c **** /* USER CODE BEGIN MX_GPIO_Init_1 */
 218:Core/Src/main.c **** /* USER CODE END MX_GPIO_Init_1 */
 219:Core/Src/main.c **** 
 220:Core/Src/main.c ****   /* GPIO Ports Clock Enable */
 221:Core/Src/main.c ****   __HAL_RCC_GPIOD_CLK_ENABLE();
  46              		.loc 1 221 3 is_stmt 1 view .LVU3
  47              	.LBB4:
  48              		.loc 1 221 3 view .LVU4
  49              		.loc 1 221 3 view .LVU5
  50 000e 204B     		ldr	r3, .L3
  51 0010 9A69     		ldr	r2, [r3, #24]
  52 0012 42F02002 		orr	r2, r2, #32
  53 0016 9A61     		str	r2, [r3, #24]
  54              		.loc 1 221 3 view .LVU6
  55 0018 9A69     		ldr	r2, [r3, #24]
  56 001a 02F02002 		and	r2, r2, #32
  57 001e 0192     		str	r2, [sp, #4]
  58              		.loc 1 221 3 view .LVU7
  59 0020 019A     		ldr	r2, [sp, #4]
  60              	.LBE4:
  61              		.loc 1 221 3 view .LVU8
 222:Core/Src/main.c ****   __HAL_RCC_GPIOA_CLK_ENABLE();
  62              		.loc 1 222 3 view .LVU9
  63              	.LBB5:
  64              		.loc 1 222 3 view .LVU10
ARM GAS  C:\Users\84935\AppData\Local\Temp\ccvgNpob.s 			page 6


  65              		.loc 1 222 3 view .LVU11
  66 0022 9A69     		ldr	r2, [r3, #24]
  67 0024 42F00402 		orr	r2, r2, #4
  68 0028 9A61     		str	r2, [r3, #24]
  69              		.loc 1 222 3 view .LVU12
  70 002a 9A69     		ldr	r2, [r3, #24]
  71 002c 02F00402 		and	r2, r2, #4
  72 0030 0292     		str	r2, [sp, #8]
  73              		.loc 1 222 3 view .LVU13
  74 0032 029A     		ldr	r2, [sp, #8]
  75              	.LBE5:
  76              		.loc 1 222 3 view .LVU14
 223:Core/Src/main.c ****   __HAL_RCC_GPIOB_CLK_ENABLE();
  77              		.loc 1 223 3 view .LVU15
  78              	.LBB6:
  79              		.loc 1 223 3 view .LVU16
  80              		.loc 1 223 3 view .LVU17
  81 0034 9A69     		ldr	r2, [r3, #24]
  82 0036 42F00802 		orr	r2, r2, #8
  83 003a 9A61     		str	r2, [r3, #24]
  84              		.loc 1 223 3 view .LVU18
  85 003c 9B69     		ldr	r3, [r3, #24]
  86 003e 03F00803 		and	r3, r3, #8
  87 0042 0393     		str	r3, [sp, #12]
  88              		.loc 1 223 3 view .LVU19
  89 0044 039B     		ldr	r3, [sp, #12]
  90              	.LBE6:
  91              		.loc 1 223 3 view .LVU20
 224:Core/Src/main.c **** 
 225:Core/Src/main.c ****   /*Configure GPIO pin Output Level */
 226:Core/Src/main.c ****   HAL_GPIO_WritePin(GPIOB, GPIO_PIN_3|GPIO_PIN_4|GPIO_PIN_5, GPIO_PIN_RESET);
  92              		.loc 1 226 3 view .LVU21
  93 0046 134D     		ldr	r5, .L3+4
  94 0048 2246     		mov	r2, r4
  95 004a 3821     		movs	r1, #56
  96 004c 2846     		mov	r0, r5
  97 004e FFF7FEFF 		bl	HAL_GPIO_WritePin
  98              	.LVL0:
 227:Core/Src/main.c **** 
 228:Core/Src/main.c ****   /*Configure GPIO pins : PB3 PB4 PB5 */
 229:Core/Src/main.c ****   GPIO_InitStruct.Pin = GPIO_PIN_3|GPIO_PIN_4|GPIO_PIN_5;
  99              		.loc 1 229 3 view .LVU22
 100              		.loc 1 229 23 is_stmt 0 view .LVU23
 101 0052 3823     		movs	r3, #56
 102 0054 0493     		str	r3, [sp, #16]
 230:Core/Src/main.c ****   GPIO_InitStruct.Mode = GPIO_MODE_OUTPUT_PP;
 103              		.loc 1 230 3 is_stmt 1 view .LVU24
 104              		.loc 1 230 24 is_stmt 0 view .LVU25
 105 0056 0123     		movs	r3, #1
 106 0058 0593     		str	r3, [sp, #20]
 231:Core/Src/main.c ****   GPIO_InitStruct.Pull = GPIO_NOPULL;
 107              		.loc 1 231 3 is_stmt 1 view .LVU26
 108              		.loc 1 231 24 is_stmt 0 view .LVU27
 109 005a 0694     		str	r4, [sp, #24]
 232:Core/Src/main.c ****   GPIO_InitStruct.Speed = GPIO_SPEED_FREQ_LOW;
 110              		.loc 1 232 3 is_stmt 1 view .LVU28
 111              		.loc 1 232 25 is_stmt 0 view .LVU29
ARM GAS  C:\Users\84935\AppData\Local\Temp\ccvgNpob.s 			page 7


 112 005c 0223     		movs	r3, #2
 113 005e 0793     		str	r3, [sp, #28]
 233:Core/Src/main.c ****   HAL_GPIO_Init(GPIOB, &GPIO_InitStruct);
 114              		.loc 1 233 3 is_stmt 1 view .LVU30
 115 0060 04A9     		add	r1, sp, #16
 116 0062 2846     		mov	r0, r5
 117 0064 FFF7FEFF 		bl	HAL_GPIO_Init
 118              	.LVL1:
 234:Core/Src/main.c **** 
 235:Core/Src/main.c ****   /*Configure GPIO pin : PB6 */
 236:Core/Src/main.c ****   GPIO_InitStruct.Pin = GPIO_PIN_6;
 119              		.loc 1 236 3 view .LVU31
 120              		.loc 1 236 23 is_stmt 0 view .LVU32
 121 0068 4023     		movs	r3, #64
 122 006a 0493     		str	r3, [sp, #16]
 237:Core/Src/main.c ****   GPIO_InitStruct.Mode = GPIO_MODE_IT_RISING;
 123              		.loc 1 237 3 is_stmt 1 view .LVU33
 124              		.loc 1 237 24 is_stmt 0 view .LVU34
 125 006c 0A4B     		ldr	r3, .L3+8
 126 006e 0593     		str	r3, [sp, #20]
 238:Core/Src/main.c ****   GPIO_InitStruct.Pull = GPIO_NOPULL;
 127              		.loc 1 238 3 is_stmt 1 view .LVU35
 128              		.loc 1 238 24 is_stmt 0 view .LVU36
 129 0070 0694     		str	r4, [sp, #24]
 239:Core/Src/main.c ****   HAL_GPIO_Init(GPIOB, &GPIO_InitStruct);
 130              		.loc 1 239 3 is_stmt 1 view .LVU37
 131 0072 04A9     		add	r1, sp, #16
 132 0074 2846     		mov	r0, r5
 133 0076 FFF7FEFF 		bl	HAL_GPIO_Init
 134              	.LVL2:
 240:Core/Src/main.c **** 
 241:Core/Src/main.c ****   /* EXTI interrupt init*/
 242:Core/Src/main.c ****   HAL_NVIC_SetPriority(EXTI9_5_IRQn, 0, 0);
 135              		.loc 1 242 3 view .LVU38
 136 007a 2246     		mov	r2, r4
 137 007c 2146     		mov	r1, r4
 138 007e 1720     		movs	r0, #23
 139 0080 FFF7FEFF 		bl	HAL_NVIC_SetPriority
 140              	.LVL3:
 243:Core/Src/main.c ****   HAL_NVIC_EnableIRQ(EXTI9_5_IRQn);
 141              		.loc 1 243 3 view .LVU39
 142 0084 1720     		movs	r0, #23
 143 0086 FFF7FEFF 		bl	HAL_NVIC_EnableIRQ
 144              	.LVL4:
 244:Core/Src/main.c **** 
 245:Core/Src/main.c **** /* USER CODE BEGIN MX_GPIO_Init_2 */
 246:Core/Src/main.c **** /* USER CODE END MX_GPIO_Init_2 */
 247:Core/Src/main.c **** }
 145              		.loc 1 247 1 is_stmt 0 view .LVU40
 146 008a 09B0     		add	sp, sp, #36
 147              	.LCFI2:
 148              		.cfi_def_cfa_offset 12
 149              		@ sp needed
 150 008c 30BD     		pop	{r4, r5, pc}
 151              	.L4:
 152 008e 00BF     		.align	2
 153              	.L3:
ARM GAS  C:\Users\84935\AppData\Local\Temp\ccvgNpob.s 			page 8


 154 0090 00100240 		.word	1073876992
 155 0094 000C0140 		.word	1073810432
 156 0098 00001110 		.word	269549568
 157              		.cfi_endproc
 158              	.LFE77:
 160              		.section	.text.MX_DMA_Init,"ax",%progbits
 161              		.align	1
 162              		.syntax unified
 163              		.thumb
 164              		.thumb_func
 166              	MX_DMA_Init:
 167              	.LFB76:
 197:Core/Src/main.c **** 
 168              		.loc 1 197 1 is_stmt 1 view -0
 169              		.cfi_startproc
 170              		@ args = 0, pretend = 0, frame = 8
 171              		@ frame_needed = 0, uses_anonymous_args = 0
 172 0000 00B5     		push	{lr}
 173              	.LCFI3:
 174              		.cfi_def_cfa_offset 4
 175              		.cfi_offset 14, -4
 176 0002 83B0     		sub	sp, sp, #12
 177              	.LCFI4:
 178              		.cfi_def_cfa_offset 16
 200:Core/Src/main.c **** 
 179              		.loc 1 200 3 view .LVU42
 180              	.LBB7:
 200:Core/Src/main.c **** 
 181              		.loc 1 200 3 view .LVU43
 200:Core/Src/main.c **** 
 182              		.loc 1 200 3 view .LVU44
 183 0004 0A4B     		ldr	r3, .L7
 184 0006 5A69     		ldr	r2, [r3, #20]
 185 0008 42F00102 		orr	r2, r2, #1
 186 000c 5A61     		str	r2, [r3, #20]
 200:Core/Src/main.c **** 
 187              		.loc 1 200 3 view .LVU45
 188 000e 5B69     		ldr	r3, [r3, #20]
 189 0010 03F00103 		and	r3, r3, #1
 190 0014 0193     		str	r3, [sp, #4]
 200:Core/Src/main.c **** 
 191              		.loc 1 200 3 view .LVU46
 192 0016 019B     		ldr	r3, [sp, #4]
 193              	.LBE7:
 200:Core/Src/main.c **** 
 194              		.loc 1 200 3 view .LVU47
 204:Core/Src/main.c ****   HAL_NVIC_EnableIRQ(DMA1_Channel5_IRQn);
 195              		.loc 1 204 3 view .LVU48
 196 0018 0022     		movs	r2, #0
 197 001a 1146     		mov	r1, r2
 198 001c 0F20     		movs	r0, #15
 199 001e FFF7FEFF 		bl	HAL_NVIC_SetPriority
 200              	.LVL5:
 205:Core/Src/main.c **** 
 201              		.loc 1 205 3 view .LVU49
 202 0022 0F20     		movs	r0, #15
 203 0024 FFF7FEFF 		bl	HAL_NVIC_EnableIRQ
ARM GAS  C:\Users\84935\AppData\Local\Temp\ccvgNpob.s 			page 9


 204              	.LVL6:
 207:Core/Src/main.c **** 
 205              		.loc 1 207 1 is_stmt 0 view .LVU50
 206 0028 03B0     		add	sp, sp, #12
 207              	.LCFI5:
 208              		.cfi_def_cfa_offset 4
 209              		@ sp needed
 210 002a 5DF804FB 		ldr	pc, [sp], #4
 211              	.L8:
 212 002e 00BF     		.align	2
 213              	.L7:
 214 0030 00100240 		.word	1073876992
 215              		.cfi_endproc
 216              	.LFE76:
 218              		.section	.text.HAL_GPIO_EXTI_Callback,"ax",%progbits
 219              		.align	1
 220              		.global	HAL_GPIO_EXTI_Callback
 221              		.syntax unified
 222              		.thumb
 223              		.thumb_func
 225              	HAL_GPIO_EXTI_Callback:
 226              	.LVL7:
 227              	.LFB71:
  78:Core/Src/main.c ****   if(GPIO_Pin == STOP)
 228              		.loc 1 78 1 is_stmt 1 view -0
 229              		.cfi_startproc
 230              		@ args = 0, pretend = 0, frame = 0
 231              		@ frame_needed = 0, uses_anonymous_args = 0
  79:Core/Src/main.c ****     brake();
 232              		.loc 1 79 3 view .LVU52
  79:Core/Src/main.c ****     brake();
 233              		.loc 1 79 5 is_stmt 0 view .LVU53
 234 0000 4028     		cmp	r0, #64
 235 0002 00D0     		beq	.L15
 236 0004 7047     		bx	lr
 237              	.L15:
  78:Core/Src/main.c ****   if(GPIO_Pin == STOP)
 238              		.loc 1 78 1 view .LVU54
 239 0006 08B5     		push	{r3, lr}
 240              	.LCFI6:
 241              		.cfi_def_cfa_offset 8
 242              		.cfi_offset 3, -8
 243              		.cfi_offset 14, -4
  80:Core/Src/main.c **** }
 244              		.loc 1 80 5 is_stmt 1 view .LVU55
 245 0008 FFF7FEFF 		bl	brake
 246              	.LVL8:
  81:Core/Src/main.c **** 
 247              		.loc 1 81 1 is_stmt 0 view .LVU56
 248 000c 08BD     		pop	{r3, pc}
 249              		.cfi_endproc
 250              	.LFE71:
 252              		.section	.rodata.commandExec.str1.4,"aMS",%progbits,1
 253              		.align	2
 254              	.LC0:
 255 0000 496E7661 		.ascii	"Invalid command!\015\012\000"
 255      6C696420 
ARM GAS  C:\Users\84935\AppData\Local\Temp\ccvgNpob.s 			page 10


 255      636F6D6D 
 255      616E6421 
 255      0D0A00
 256              		.section	.text.commandExec,"ax",%progbits
 257              		.align	1
 258              		.global	commandExec
 259              		.syntax unified
 260              		.thumb
 261              		.thumb_func
 263              	commandExec:
 264              	.LVL9:
 265              	.LFB73:
 104:Core/Src/main.c ****   if(data_size == 1)
 266              		.loc 1 104 1 is_stmt 1 view -0
 267              		.cfi_startproc
 268              		@ args = 0, pretend = 0, frame = 0
 269              		@ frame_needed = 0, uses_anonymous_args = 0
 104:Core/Src/main.c ****   if(data_size == 1)
 270              		.loc 1 104 1 is_stmt 0 view .LVU58
 271 0000 08B5     		push	{r3, lr}
 272              	.LCFI7:
 273              		.cfi_def_cfa_offset 8
 274              		.cfi_offset 3, -8
 275              		.cfi_offset 14, -4
 105:Core/Src/main.c ****   {
 276              		.loc 1 105 3 is_stmt 1 view .LVU59
 105:Core/Src/main.c ****   {
 277              		.loc 1 105 5 is_stmt 0 view .LVU60
 278 0002 0128     		cmp	r0, #1
 279 0004 16D1     		bne	.L17
 107:Core/Src/main.c ****       changeDir(&dir);
 280              		.loc 1 107 5 is_stmt 1 view .LVU61
 107:Core/Src/main.c ****       changeDir(&dir);
 281              		.loc 1 107 18 is_stmt 0 view .LVU62
 282 0006 114B     		ldr	r3, .L23
 283 0008 1B78     		ldrb	r3, [r3]	@ zero_extendqisi2
 107:Core/Src/main.c ****       changeDir(&dir);
 284              		.loc 1 107 7 view .LVU63
 285 000a 302B     		cmp	r3, #48
 286 000c 07D0     		beq	.L22
 109:Core/Src/main.c ****       mode = speed;
 287              		.loc 1 109 10 is_stmt 1 view .LVU64
 109:Core/Src/main.c ****       mode = speed;
 288              		.loc 1 109 64 is_stmt 0 view .LVU65
 289 000e 313B     		subs	r3, r3, #49
 290 0010 DBB2     		uxtb	r3, r3
 109:Core/Src/main.c ****       mode = speed;
 291              		.loc 1 109 12 view .LVU66
 292 0012 022B     		cmp	r3, #2
 293 0014 07D8     		bhi	.L20
 110:Core/Src/main.c ****     else
 294              		.loc 1 110 7 is_stmt 1 view .LVU67
 110:Core/Src/main.c ****     else
 295              		.loc 1 110 12 is_stmt 0 view .LVU68
 296 0016 0E4B     		ldr	r3, .L23+4
 297 0018 0122     		movs	r2, #1
 298 001a 1A70     		strb	r2, [r3]
ARM GAS  C:\Users\84935\AppData\Local\Temp\ccvgNpob.s 			page 11


 299 001c 15E0     		b	.L16
 300              	.L22:
 108:Core/Src/main.c ****     else if(rcv_buffer[0] == speed1 || rcv_buffer[0] == speed2 || rcv_buffer[0] == speed3)
 301              		.loc 1 108 7 is_stmt 1 view .LVU69
 302 001e 0D48     		ldr	r0, .L23+8
 303              	.LVL10:
 108:Core/Src/main.c ****     else if(rcv_buffer[0] == speed1 || rcv_buffer[0] == speed2 || rcv_buffer[0] == speed3)
 304              		.loc 1 108 7 is_stmt 0 view .LVU70
 305 0020 FFF7FEFF 		bl	changeDir
 306              	.LVL11:
 307 0024 11E0     		b	.L16
 308              	.LVL12:
 309              	.L20:
 112:Core/Src/main.c ****   }
 310              		.loc 1 112 7 is_stmt 1 view .LVU71
 311 0026 6423     		movs	r3, #100
 312 0028 1222     		movs	r2, #18
 313 002a 0B49     		ldr	r1, .L23+12
 314 002c 0B48     		ldr	r0, .L23+16
 315              	.LVL13:
 112:Core/Src/main.c ****   }
 316              		.loc 1 112 7 is_stmt 0 view .LVU72
 317 002e FFF7FEFF 		bl	HAL_UART_Transmit
 318              	.LVL14:
 319 0032 0AE0     		b	.L16
 320              	.LVL15:
 321              	.L17:
 116:Core/Src/main.c ****     positionCtrl(angle2Step(atoi(rcv_buffer)));
 322              		.loc 1 116 5 is_stmt 1 view .LVU73
 116:Core/Src/main.c ****     positionCtrl(angle2Step(atoi(rcv_buffer)));
 323              		.loc 1 116 10 is_stmt 0 view .LVU74
 324 0034 064B     		ldr	r3, .L23+4
 325 0036 0222     		movs	r2, #2
 326 0038 1A70     		strb	r2, [r3]
 117:Core/Src/main.c ****   }
 327              		.loc 1 117 5 is_stmt 1 view .LVU75
 117:Core/Src/main.c ****   }
 328              		.loc 1 117 29 is_stmt 0 view .LVU76
 329 003a 0448     		ldr	r0, .L23
 330              	.LVL16:
 117:Core/Src/main.c ****   }
 331              		.loc 1 117 29 view .LVU77
 332 003c FFF7FEFF 		bl	atoi
 333              	.LVL17:
 117:Core/Src/main.c ****   }
 334              		.loc 1 117 5 view .LVU78
 335 0040 80B2     		uxth	r0, r0
 336 0042 FFF7FEFF 		bl	angle2Step
 337              	.LVL18:
 338 0046 FFF7FEFF 		bl	positionCtrl
 339              	.LVL19:
 340              	.L16:
 119:Core/Src/main.c **** 
 341              		.loc 1 119 1 view .LVU79
 342 004a 08BD     		pop	{r3, pc}
 343              	.L24:
 344              		.align	2
ARM GAS  C:\Users\84935\AppData\Local\Temp\ccvgNpob.s 			page 12


 345              	.L23:
 346 004c 00000000 		.word	.LANCHOR0
 347 0050 00000000 		.word	.LANCHOR2
 348 0054 00000000 		.word	.LANCHOR1
 349 0058 00000000 		.word	.LC0
 350 005c 00000000 		.word	.LANCHOR3
 351              		.cfi_endproc
 352              	.LFE73:
 354              		.section	.rodata.HAL_UARTEx_RxEventCallback.str1.4,"aMS",%progbits,1
 355              		.align	2
 356              	.LC1:
 357 0000 52656365 		.ascii	"Received: %s Size: %u\015\012\000"
 357      69766564 
 357      3A202573 
 357      2053697A 
 357      653A2025 
 358              		.section	.text.HAL_UARTEx_RxEventCallback,"ax",%progbits
 359              		.align	1
 360              		.global	HAL_UARTEx_RxEventCallback
 361              		.syntax unified
 362              		.thumb
 363              		.thumb_func
 365              	HAL_UARTEx_RxEventCallback:
 366              	.LVL20:
 367              	.LFB72:
  85:Core/Src/main.c ****   // Check if data come on USART1 channel
 368              		.loc 1 85 1 is_stmt 1 view -0
 369              		.cfi_startproc
 370              		@ args = 0, pretend = 0, frame = 0
 371              		@ frame_needed = 0, uses_anonymous_args = 0
  85:Core/Src/main.c ****   // Check if data come on USART1 channel
 372              		.loc 1 85 1 is_stmt 0 view .LVU81
 373 0000 F8B5     		push	{r3, r4, r5, r6, r7, lr}
 374              	.LCFI8:
 375              		.cfi_def_cfa_offset 24
 376              		.cfi_offset 3, -24
 377              		.cfi_offset 4, -20
 378              		.cfi_offset 5, -16
 379              		.cfi_offset 6, -12
 380              		.cfi_offset 7, -8
 381              		.cfi_offset 14, -4
  87:Core/Src/main.c ****   {
 382              		.loc 1 87 3 is_stmt 1 view .LVU82
  87:Core/Src/main.c ****   {
 383              		.loc 1 87 5 is_stmt 0 view .LVU83
 384 0002 134A     		ldr	r2, .L29
 385 0004 0368     		ldr	r3, [r0]
 386 0006 9342     		cmp	r3, r2
 387 0008 00D0     		beq	.L28
 388              	.LVL21:
 389              	.L25:
 100:Core/Src/main.c **** 
 390              		.loc 1 100 1 view .LVU84
 391 000a F8BD     		pop	{r3, r4, r5, r6, r7, pc}
 392              	.LVL22:
 393              	.L28:
 100:Core/Src/main.c **** 
ARM GAS  C:\Users\84935\AppData\Local\Temp\ccvgNpob.s 			page 13


 394              		.loc 1 100 1 view .LVU85
 395 000c 0446     		mov	r4, r0
 396 000e 0D46     		mov	r5, r1
  90:Core/Src/main.c ****     HAL_UART_Transmit(huart, send_msg, strlen(send_msg), 100);
 397              		.loc 1 90 5 is_stmt 1 view .LVU86
 398 0010 104F     		ldr	r7, .L29+4
 399 0012 114E     		ldr	r6, .L29+8
 400 0014 0B46     		mov	r3, r1
 401 0016 3A46     		mov	r2, r7
 402 0018 1049     		ldr	r1, .L29+12
 403              	.LVL23:
  90:Core/Src/main.c ****     HAL_UART_Transmit(huart, send_msg, strlen(send_msg), 100);
 404              		.loc 1 90 5 is_stmt 0 view .LVU87
 405 001a 3046     		mov	r0, r6
 406              	.LVL24:
  90:Core/Src/main.c ****     HAL_UART_Transmit(huart, send_msg, strlen(send_msg), 100);
 407              		.loc 1 90 5 view .LVU88
 408 001c FFF7FEFF 		bl	sprintf
 409              	.LVL25:
  91:Core/Src/main.c **** 
 410              		.loc 1 91 5 is_stmt 1 view .LVU89
  91:Core/Src/main.c **** 
 411              		.loc 1 91 40 is_stmt 0 view .LVU90
 412 0020 3046     		mov	r0, r6
 413 0022 FFF7FEFF 		bl	strlen
 414              	.LVL26:
  91:Core/Src/main.c **** 
 415              		.loc 1 91 5 view .LVU91
 416 0026 6423     		movs	r3, #100
 417 0028 82B2     		uxth	r2, r0
 418 002a 3146     		mov	r1, r6
 419 002c 2046     		mov	r0, r4
 420 002e FFF7FEFF 		bl	HAL_UART_Transmit
 421              	.LVL27:
  94:Core/Src/main.c ****     __HAL_DMA_DISABLE_IT(&hdma_usart1_rx, DMA_IT_HT);
 422              		.loc 1 94 5 is_stmt 1 view .LVU92
 423 0032 0522     		movs	r2, #5
 424 0034 3946     		mov	r1, r7
 425 0036 0A48     		ldr	r0, .L29+16
 426 0038 FFF7FEFF 		bl	HAL_UARTEx_ReceiveToIdle_DMA
 427              	.LVL28:
  95:Core/Src/main.c **** 
 428              		.loc 1 95 5 view .LVU93
 429 003c 094B     		ldr	r3, .L29+20
 430 003e 1A68     		ldr	r2, [r3]
 431 0040 1368     		ldr	r3, [r2]
 432 0042 23F00403 		bic	r3, r3, #4
 433 0046 1360     		str	r3, [r2]
  98:Core/Src/main.c ****   }
 434              		.loc 1 98 5 view .LVU94
 435 0048 2846     		mov	r0, r5
 436 004a FFF7FEFF 		bl	commandExec
 437              	.LVL29:
 100:Core/Src/main.c **** 
 438              		.loc 1 100 1 is_stmt 0 view .LVU95
 439 004e DCE7     		b	.L25
 440              	.L30:
ARM GAS  C:\Users\84935\AppData\Local\Temp\ccvgNpob.s 			page 14


 441              		.align	2
 442              	.L29:
 443 0050 00380140 		.word	1073821696
 444 0054 00000000 		.word	.LANCHOR0
 445 0058 00000000 		.word	.LANCHOR4
 446 005c 00000000 		.word	.LC1
 447 0060 00000000 		.word	.LANCHOR3
 448 0064 00000000 		.word	.LANCHOR5
 449              		.cfi_endproc
 450              	.LFE72:
 452              		.section	.text.Error_Handler,"ax",%progbits
 453              		.align	1
 454              		.global	Error_Handler
 455              		.syntax unified
 456              		.thumb
 457              		.thumb_func
 459              	Error_Handler:
 460              	.LFB78:
 248:Core/Src/main.c **** 
 249:Core/Src/main.c **** /* USER CODE BEGIN 4 */
 250:Core/Src/main.c **** 
 251:Core/Src/main.c **** /* USER CODE END 4 */
 252:Core/Src/main.c **** 
 253:Core/Src/main.c **** /**
 254:Core/Src/main.c ****   * @brief  This function is executed in case of error occurrence.
 255:Core/Src/main.c ****   * @retval None
 256:Core/Src/main.c ****   */
 257:Core/Src/main.c **** void Error_Handler(void)
 258:Core/Src/main.c **** {
 461              		.loc 1 258 1 is_stmt 1 view -0
 462              		.cfi_startproc
 463              		@ Volatile: function does not return.
 464              		@ args = 0, pretend = 0, frame = 0
 465              		@ frame_needed = 0, uses_anonymous_args = 0
 466              		@ link register save eliminated.
 259:Core/Src/main.c ****   /* USER CODE BEGIN Error_Handler_Debug */
 260:Core/Src/main.c ****   /* User can add his own implementation to report the HAL error return state */
 261:Core/Src/main.c ****   __disable_irq();
 467              		.loc 1 261 3 view .LVU97
 468              	.LBB8:
 469              	.LBI8:
 470              		.file 2 "Drivers/CMSIS/Include/cmsis_gcc.h"
   1:Drivers/CMSIS/Include/cmsis_gcc.h **** /**************************************************************************//**
   2:Drivers/CMSIS/Include/cmsis_gcc.h ****  * @file     cmsis_gcc.h
   3:Drivers/CMSIS/Include/cmsis_gcc.h ****  * @brief    CMSIS compiler GCC header file
   4:Drivers/CMSIS/Include/cmsis_gcc.h ****  * @version  V5.0.4
   5:Drivers/CMSIS/Include/cmsis_gcc.h ****  * @date     09. April 2018
   6:Drivers/CMSIS/Include/cmsis_gcc.h ****  ******************************************************************************/
   7:Drivers/CMSIS/Include/cmsis_gcc.h **** /*
   8:Drivers/CMSIS/Include/cmsis_gcc.h ****  * Copyright (c) 2009-2018 Arm Limited. All rights reserved.
   9:Drivers/CMSIS/Include/cmsis_gcc.h ****  *
  10:Drivers/CMSIS/Include/cmsis_gcc.h ****  * SPDX-License-Identifier: Apache-2.0
  11:Drivers/CMSIS/Include/cmsis_gcc.h ****  *
  12:Drivers/CMSIS/Include/cmsis_gcc.h ****  * Licensed under the Apache License, Version 2.0 (the License); you may
  13:Drivers/CMSIS/Include/cmsis_gcc.h ****  * not use this file except in compliance with the License.
  14:Drivers/CMSIS/Include/cmsis_gcc.h ****  * You may obtain a copy of the License at
  15:Drivers/CMSIS/Include/cmsis_gcc.h ****  *
ARM GAS  C:\Users\84935\AppData\Local\Temp\ccvgNpob.s 			page 15


  16:Drivers/CMSIS/Include/cmsis_gcc.h ****  * www.apache.org/licenses/LICENSE-2.0
  17:Drivers/CMSIS/Include/cmsis_gcc.h ****  *
  18:Drivers/CMSIS/Include/cmsis_gcc.h ****  * Unless required by applicable law or agreed to in writing, software
  19:Drivers/CMSIS/Include/cmsis_gcc.h ****  * distributed under the License is distributed on an AS IS BASIS, WITHOUT
  20:Drivers/CMSIS/Include/cmsis_gcc.h ****  * WARRANTIES OR CONDITIONS OF ANY KIND, either express or implied.
  21:Drivers/CMSIS/Include/cmsis_gcc.h ****  * See the License for the specific language governing permissions and
  22:Drivers/CMSIS/Include/cmsis_gcc.h ****  * limitations under the License.
  23:Drivers/CMSIS/Include/cmsis_gcc.h ****  */
  24:Drivers/CMSIS/Include/cmsis_gcc.h **** 
  25:Drivers/CMSIS/Include/cmsis_gcc.h **** #ifndef __CMSIS_GCC_H
  26:Drivers/CMSIS/Include/cmsis_gcc.h **** #define __CMSIS_GCC_H
  27:Drivers/CMSIS/Include/cmsis_gcc.h **** 
  28:Drivers/CMSIS/Include/cmsis_gcc.h **** /* ignore some GCC warnings */
  29:Drivers/CMSIS/Include/cmsis_gcc.h **** #pragma GCC diagnostic push
  30:Drivers/CMSIS/Include/cmsis_gcc.h **** #pragma GCC diagnostic ignored "-Wsign-conversion"
  31:Drivers/CMSIS/Include/cmsis_gcc.h **** #pragma GCC diagnostic ignored "-Wconversion"
  32:Drivers/CMSIS/Include/cmsis_gcc.h **** #pragma GCC diagnostic ignored "-Wunused-parameter"
  33:Drivers/CMSIS/Include/cmsis_gcc.h **** 
  34:Drivers/CMSIS/Include/cmsis_gcc.h **** /* Fallback for __has_builtin */
  35:Drivers/CMSIS/Include/cmsis_gcc.h **** #ifndef __has_builtin
  36:Drivers/CMSIS/Include/cmsis_gcc.h ****   #define __has_builtin(x) (0)
  37:Drivers/CMSIS/Include/cmsis_gcc.h **** #endif
  38:Drivers/CMSIS/Include/cmsis_gcc.h **** 
  39:Drivers/CMSIS/Include/cmsis_gcc.h **** /* CMSIS compiler specific defines */
  40:Drivers/CMSIS/Include/cmsis_gcc.h **** #ifndef   __ASM
  41:Drivers/CMSIS/Include/cmsis_gcc.h ****   #define __ASM                                  __asm
  42:Drivers/CMSIS/Include/cmsis_gcc.h **** #endif
  43:Drivers/CMSIS/Include/cmsis_gcc.h **** #ifndef   __INLINE
  44:Drivers/CMSIS/Include/cmsis_gcc.h ****   #define __INLINE                               inline
  45:Drivers/CMSIS/Include/cmsis_gcc.h **** #endif
  46:Drivers/CMSIS/Include/cmsis_gcc.h **** #ifndef   __STATIC_INLINE
  47:Drivers/CMSIS/Include/cmsis_gcc.h ****   #define __STATIC_INLINE                        static inline
  48:Drivers/CMSIS/Include/cmsis_gcc.h **** #endif
  49:Drivers/CMSIS/Include/cmsis_gcc.h **** #ifndef   __STATIC_FORCEINLINE                 
  50:Drivers/CMSIS/Include/cmsis_gcc.h ****   #define __STATIC_FORCEINLINE                   __attribute__((always_inline)) static inline
  51:Drivers/CMSIS/Include/cmsis_gcc.h **** #endif                                           
  52:Drivers/CMSIS/Include/cmsis_gcc.h **** #ifndef   __NO_RETURN
  53:Drivers/CMSIS/Include/cmsis_gcc.h ****   #define __NO_RETURN                            __attribute__((__noreturn__))
  54:Drivers/CMSIS/Include/cmsis_gcc.h **** #endif
  55:Drivers/CMSIS/Include/cmsis_gcc.h **** #ifndef   __USED
  56:Drivers/CMSIS/Include/cmsis_gcc.h ****   #define __USED                                 __attribute__((used))
  57:Drivers/CMSIS/Include/cmsis_gcc.h **** #endif
  58:Drivers/CMSIS/Include/cmsis_gcc.h **** #ifndef   __WEAK
  59:Drivers/CMSIS/Include/cmsis_gcc.h ****   #define __WEAK                                 __attribute__((weak))
  60:Drivers/CMSIS/Include/cmsis_gcc.h **** #endif
  61:Drivers/CMSIS/Include/cmsis_gcc.h **** #ifndef   __PACKED
  62:Drivers/CMSIS/Include/cmsis_gcc.h ****   #define __PACKED                               __attribute__((packed, aligned(1)))
  63:Drivers/CMSIS/Include/cmsis_gcc.h **** #endif
  64:Drivers/CMSIS/Include/cmsis_gcc.h **** #ifndef   __PACKED_STRUCT
  65:Drivers/CMSIS/Include/cmsis_gcc.h ****   #define __PACKED_STRUCT                        struct __attribute__((packed, aligned(1)))
  66:Drivers/CMSIS/Include/cmsis_gcc.h **** #endif
  67:Drivers/CMSIS/Include/cmsis_gcc.h **** #ifndef   __PACKED_UNION
  68:Drivers/CMSIS/Include/cmsis_gcc.h ****   #define __PACKED_UNION                         union __attribute__((packed, aligned(1)))
  69:Drivers/CMSIS/Include/cmsis_gcc.h **** #endif
  70:Drivers/CMSIS/Include/cmsis_gcc.h **** #ifndef   __UNALIGNED_UINT32        /* deprecated */
  71:Drivers/CMSIS/Include/cmsis_gcc.h ****   #pragma GCC diagnostic push
  72:Drivers/CMSIS/Include/cmsis_gcc.h ****   #pragma GCC diagnostic ignored "-Wpacked"
ARM GAS  C:\Users\84935\AppData\Local\Temp\ccvgNpob.s 			page 16


  73:Drivers/CMSIS/Include/cmsis_gcc.h ****   #pragma GCC diagnostic ignored "-Wattributes"
  74:Drivers/CMSIS/Include/cmsis_gcc.h ****   struct __attribute__((packed)) T_UINT32 { uint32_t v; };
  75:Drivers/CMSIS/Include/cmsis_gcc.h ****   #pragma GCC diagnostic pop
  76:Drivers/CMSIS/Include/cmsis_gcc.h ****   #define __UNALIGNED_UINT32(x)                  (((struct T_UINT32 *)(x))->v)
  77:Drivers/CMSIS/Include/cmsis_gcc.h **** #endif
  78:Drivers/CMSIS/Include/cmsis_gcc.h **** #ifndef   __UNALIGNED_UINT16_WRITE
  79:Drivers/CMSIS/Include/cmsis_gcc.h ****   #pragma GCC diagnostic push
  80:Drivers/CMSIS/Include/cmsis_gcc.h ****   #pragma GCC diagnostic ignored "-Wpacked"
  81:Drivers/CMSIS/Include/cmsis_gcc.h ****   #pragma GCC diagnostic ignored "-Wattributes"
  82:Drivers/CMSIS/Include/cmsis_gcc.h ****   __PACKED_STRUCT T_UINT16_WRITE { uint16_t v; };
  83:Drivers/CMSIS/Include/cmsis_gcc.h ****   #pragma GCC diagnostic pop
  84:Drivers/CMSIS/Include/cmsis_gcc.h ****   #define __UNALIGNED_UINT16_WRITE(addr, val)    (void)((((struct T_UINT16_WRITE *)(void *)(addr))-
  85:Drivers/CMSIS/Include/cmsis_gcc.h **** #endif
  86:Drivers/CMSIS/Include/cmsis_gcc.h **** #ifndef   __UNALIGNED_UINT16_READ
  87:Drivers/CMSIS/Include/cmsis_gcc.h ****   #pragma GCC diagnostic push
  88:Drivers/CMSIS/Include/cmsis_gcc.h ****   #pragma GCC diagnostic ignored "-Wpacked"
  89:Drivers/CMSIS/Include/cmsis_gcc.h ****   #pragma GCC diagnostic ignored "-Wattributes"
  90:Drivers/CMSIS/Include/cmsis_gcc.h ****   __PACKED_STRUCT T_UINT16_READ { uint16_t v; };
  91:Drivers/CMSIS/Include/cmsis_gcc.h ****   #pragma GCC diagnostic pop
  92:Drivers/CMSIS/Include/cmsis_gcc.h ****   #define __UNALIGNED_UINT16_READ(addr)          (((const struct T_UINT16_READ *)(const void *)(add
  93:Drivers/CMSIS/Include/cmsis_gcc.h **** #endif
  94:Drivers/CMSIS/Include/cmsis_gcc.h **** #ifndef   __UNALIGNED_UINT32_WRITE
  95:Drivers/CMSIS/Include/cmsis_gcc.h ****   #pragma GCC diagnostic push
  96:Drivers/CMSIS/Include/cmsis_gcc.h ****   #pragma GCC diagnostic ignored "-Wpacked"
  97:Drivers/CMSIS/Include/cmsis_gcc.h ****   #pragma GCC diagnostic ignored "-Wattributes"
  98:Drivers/CMSIS/Include/cmsis_gcc.h ****   __PACKED_STRUCT T_UINT32_WRITE { uint32_t v; };
  99:Drivers/CMSIS/Include/cmsis_gcc.h ****   #pragma GCC diagnostic pop
 100:Drivers/CMSIS/Include/cmsis_gcc.h ****   #define __UNALIGNED_UINT32_WRITE(addr, val)    (void)((((struct T_UINT32_WRITE *)(void *)(addr))-
 101:Drivers/CMSIS/Include/cmsis_gcc.h **** #endif
 102:Drivers/CMSIS/Include/cmsis_gcc.h **** #ifndef   __UNALIGNED_UINT32_READ
 103:Drivers/CMSIS/Include/cmsis_gcc.h ****   #pragma GCC diagnostic push
 104:Drivers/CMSIS/Include/cmsis_gcc.h ****   #pragma GCC diagnostic ignored "-Wpacked"
 105:Drivers/CMSIS/Include/cmsis_gcc.h ****   #pragma GCC diagnostic ignored "-Wattributes"
 106:Drivers/CMSIS/Include/cmsis_gcc.h ****   __PACKED_STRUCT T_UINT32_READ { uint32_t v; };
 107:Drivers/CMSIS/Include/cmsis_gcc.h ****   #pragma GCC diagnostic pop
 108:Drivers/CMSIS/Include/cmsis_gcc.h ****   #define __UNALIGNED_UINT32_READ(addr)          (((const struct T_UINT32_READ *)(const void *)(add
 109:Drivers/CMSIS/Include/cmsis_gcc.h **** #endif
 110:Drivers/CMSIS/Include/cmsis_gcc.h **** #ifndef   __ALIGNED
 111:Drivers/CMSIS/Include/cmsis_gcc.h ****   #define __ALIGNED(x)                           __attribute__((aligned(x)))
 112:Drivers/CMSIS/Include/cmsis_gcc.h **** #endif
 113:Drivers/CMSIS/Include/cmsis_gcc.h **** #ifndef   __RESTRICT
 114:Drivers/CMSIS/Include/cmsis_gcc.h ****   #define __RESTRICT                             __restrict
 115:Drivers/CMSIS/Include/cmsis_gcc.h **** #endif
 116:Drivers/CMSIS/Include/cmsis_gcc.h **** 
 117:Drivers/CMSIS/Include/cmsis_gcc.h **** 
 118:Drivers/CMSIS/Include/cmsis_gcc.h **** /* ###########################  Core Function Access  ########################### */
 119:Drivers/CMSIS/Include/cmsis_gcc.h **** /** \ingroup  CMSIS_Core_FunctionInterface
 120:Drivers/CMSIS/Include/cmsis_gcc.h ****     \defgroup CMSIS_Core_RegAccFunctions CMSIS Core Register Access Functions
 121:Drivers/CMSIS/Include/cmsis_gcc.h ****   @{
 122:Drivers/CMSIS/Include/cmsis_gcc.h ****  */
 123:Drivers/CMSIS/Include/cmsis_gcc.h **** 
 124:Drivers/CMSIS/Include/cmsis_gcc.h **** /**
 125:Drivers/CMSIS/Include/cmsis_gcc.h ****   \brief   Enable IRQ Interrupts
 126:Drivers/CMSIS/Include/cmsis_gcc.h ****   \details Enables IRQ interrupts by clearing the I-bit in the CPSR.
 127:Drivers/CMSIS/Include/cmsis_gcc.h ****            Can only be executed in Privileged modes.
 128:Drivers/CMSIS/Include/cmsis_gcc.h ****  */
 129:Drivers/CMSIS/Include/cmsis_gcc.h **** __STATIC_FORCEINLINE void __enable_irq(void)
ARM GAS  C:\Users\84935\AppData\Local\Temp\ccvgNpob.s 			page 17


 130:Drivers/CMSIS/Include/cmsis_gcc.h **** {
 131:Drivers/CMSIS/Include/cmsis_gcc.h ****   __ASM volatile ("cpsie i" : : : "memory");
 132:Drivers/CMSIS/Include/cmsis_gcc.h **** }
 133:Drivers/CMSIS/Include/cmsis_gcc.h **** 
 134:Drivers/CMSIS/Include/cmsis_gcc.h **** 
 135:Drivers/CMSIS/Include/cmsis_gcc.h **** /**
 136:Drivers/CMSIS/Include/cmsis_gcc.h ****   \brief   Disable IRQ Interrupts
 137:Drivers/CMSIS/Include/cmsis_gcc.h ****   \details Disables IRQ interrupts by setting the I-bit in the CPSR.
 138:Drivers/CMSIS/Include/cmsis_gcc.h ****            Can only be executed in Privileged modes.
 139:Drivers/CMSIS/Include/cmsis_gcc.h ****  */
 140:Drivers/CMSIS/Include/cmsis_gcc.h **** __STATIC_FORCEINLINE void __disable_irq(void)
 471              		.loc 2 140 27 view .LVU98
 472              	.LBB9:
 141:Drivers/CMSIS/Include/cmsis_gcc.h **** {
 142:Drivers/CMSIS/Include/cmsis_gcc.h ****   __ASM volatile ("cpsid i" : : : "memory");
 473              		.loc 2 142 3 view .LVU99
 474              		.syntax unified
 475              	@ 142 "Drivers/CMSIS/Include/cmsis_gcc.h" 1
 476 0000 72B6     		cpsid i
 477              	@ 0 "" 2
 478              		.thumb
 479              		.syntax unified
 480              	.L32:
 481              	.LBE9:
 482              	.LBE8:
 262:Core/Src/main.c ****   while (1)
 483              		.loc 1 262 3 discriminator 1 view .LVU100
 263:Core/Src/main.c ****   {
 264:Core/Src/main.c ****   }
 484              		.loc 1 264 3 discriminator 1 view .LVU101
 262:Core/Src/main.c ****   while (1)
 485              		.loc 1 262 9 discriminator 1 view .LVU102
 486 0002 FEE7     		b	.L32
 487              		.cfi_endproc
 488              	.LFE78:
 490              		.section	.text.MX_USART1_UART_Init,"ax",%progbits
 491              		.align	1
 492              		.syntax unified
 493              		.thumb
 494              		.thumb_func
 496              	MX_USART1_UART_Init:
 497              	.LFB75:
 166:Core/Src/main.c **** 
 498              		.loc 1 166 1 view -0
 499              		.cfi_startproc
 500              		@ args = 0, pretend = 0, frame = 0
 501              		@ frame_needed = 0, uses_anonymous_args = 0
 502 0000 08B5     		push	{r3, lr}
 503              	.LCFI9:
 504              		.cfi_def_cfa_offset 8
 505              		.cfi_offset 3, -8
 506              		.cfi_offset 14, -4
 175:Core/Src/main.c ****   huart1.Init.BaudRate = 9600;
 507              		.loc 1 175 3 view .LVU104
 175:Core/Src/main.c ****   huart1.Init.BaudRate = 9600;
 508              		.loc 1 175 19 is_stmt 0 view .LVU105
 509 0002 0A48     		ldr	r0, .L37
ARM GAS  C:\Users\84935\AppData\Local\Temp\ccvgNpob.s 			page 18


 510 0004 0A4B     		ldr	r3, .L37+4
 511 0006 0360     		str	r3, [r0]
 176:Core/Src/main.c ****   huart1.Init.WordLength = UART_WORDLENGTH_8B;
 512              		.loc 1 176 3 is_stmt 1 view .LVU106
 176:Core/Src/main.c ****   huart1.Init.WordLength = UART_WORDLENGTH_8B;
 513              		.loc 1 176 24 is_stmt 0 view .LVU107
 514 0008 4FF41653 		mov	r3, #9600
 515 000c 4360     		str	r3, [r0, #4]
 177:Core/Src/main.c ****   huart1.Init.StopBits = UART_STOPBITS_1;
 516              		.loc 1 177 3 is_stmt 1 view .LVU108
 177:Core/Src/main.c ****   huart1.Init.StopBits = UART_STOPBITS_1;
 517              		.loc 1 177 26 is_stmt 0 view .LVU109
 518 000e 0023     		movs	r3, #0
 519 0010 8360     		str	r3, [r0, #8]
 178:Core/Src/main.c ****   huart1.Init.Parity = UART_PARITY_NONE;
 520              		.loc 1 178 3 is_stmt 1 view .LVU110
 178:Core/Src/main.c ****   huart1.Init.Parity = UART_PARITY_NONE;
 521              		.loc 1 178 24 is_stmt 0 view .LVU111
 522 0012 C360     		str	r3, [r0, #12]
 179:Core/Src/main.c ****   huart1.Init.Mode = UART_MODE_TX_RX;
 523              		.loc 1 179 3 is_stmt 1 view .LVU112
 179:Core/Src/main.c ****   huart1.Init.Mode = UART_MODE_TX_RX;
 524              		.loc 1 179 22 is_stmt 0 view .LVU113
 525 0014 0361     		str	r3, [r0, #16]
 180:Core/Src/main.c ****   huart1.Init.HwFlowCtl = UART_HWCONTROL_NONE;
 526              		.loc 1 180 3 is_stmt 1 view .LVU114
 180:Core/Src/main.c ****   huart1.Init.HwFlowCtl = UART_HWCONTROL_NONE;
 527              		.loc 1 180 20 is_stmt 0 view .LVU115
 528 0016 0C22     		movs	r2, #12
 529 0018 4261     		str	r2, [r0, #20]
 181:Core/Src/main.c ****   huart1.Init.OverSampling = UART_OVERSAMPLING_16;
 530              		.loc 1 181 3 is_stmt 1 view .LVU116
 181:Core/Src/main.c ****   huart1.Init.OverSampling = UART_OVERSAMPLING_16;
 531              		.loc 1 181 25 is_stmt 0 view .LVU117
 532 001a 8361     		str	r3, [r0, #24]
 182:Core/Src/main.c ****   if (HAL_UART_Init(&huart1) != HAL_OK)
 533              		.loc 1 182 3 is_stmt 1 view .LVU118
 182:Core/Src/main.c ****   if (HAL_UART_Init(&huart1) != HAL_OK)
 534              		.loc 1 182 28 is_stmt 0 view .LVU119
 535 001c C361     		str	r3, [r0, #28]
 183:Core/Src/main.c ****   {
 536              		.loc 1 183 3 is_stmt 1 view .LVU120
 183:Core/Src/main.c ****   {
 537              		.loc 1 183 7 is_stmt 0 view .LVU121
 538 001e FFF7FEFF 		bl	HAL_UART_Init
 539              	.LVL30:
 183:Core/Src/main.c ****   {
 540              		.loc 1 183 6 view .LVU122
 541 0022 00B9     		cbnz	r0, .L36
 191:Core/Src/main.c **** 
 542              		.loc 1 191 1 view .LVU123
 543 0024 08BD     		pop	{r3, pc}
 544              	.L36:
 185:Core/Src/main.c ****   }
 545              		.loc 1 185 5 is_stmt 1 view .LVU124
 546 0026 FFF7FEFF 		bl	Error_Handler
 547              	.LVL31:
ARM GAS  C:\Users\84935\AppData\Local\Temp\ccvgNpob.s 			page 19


 548              	.L38:
 549 002a 00BF     		.align	2
 550              	.L37:
 551 002c 00000000 		.word	.LANCHOR3
 552 0030 00380140 		.word	1073821696
 553              		.cfi_endproc
 554              	.LFE75:
 556              		.section	.text.SystemClock_Config,"ax",%progbits
 557              		.align	1
 558              		.global	SystemClock_Config
 559              		.syntax unified
 560              		.thumb
 561              		.thumb_func
 563              	SystemClock_Config:
 564              	.LFB74:
 126:Core/Src/main.c ****   RCC_OscInitTypeDef RCC_OscInitStruct = {0};
 565              		.loc 1 126 1 view -0
 566              		.cfi_startproc
 567              		@ args = 0, pretend = 0, frame = 64
 568              		@ frame_needed = 0, uses_anonymous_args = 0
 569 0000 00B5     		push	{lr}
 570              	.LCFI10:
 571              		.cfi_def_cfa_offset 4
 572              		.cfi_offset 14, -4
 573 0002 91B0     		sub	sp, sp, #68
 574              	.LCFI11:
 575              		.cfi_def_cfa_offset 72
 127:Core/Src/main.c ****   RCC_ClkInitTypeDef RCC_ClkInitStruct = {0};
 576              		.loc 1 127 3 view .LVU126
 127:Core/Src/main.c ****   RCC_ClkInitTypeDef RCC_ClkInitStruct = {0};
 577              		.loc 1 127 22 is_stmt 0 view .LVU127
 578 0004 2822     		movs	r2, #40
 579 0006 0021     		movs	r1, #0
 580 0008 06A8     		add	r0, sp, #24
 581 000a FFF7FEFF 		bl	memset
 582              	.LVL32:
 128:Core/Src/main.c **** 
 583              		.loc 1 128 3 is_stmt 1 view .LVU128
 128:Core/Src/main.c **** 
 584              		.loc 1 128 22 is_stmt 0 view .LVU129
 585 000e 0023     		movs	r3, #0
 586 0010 0193     		str	r3, [sp, #4]
 587 0012 0293     		str	r3, [sp, #8]
 588 0014 0393     		str	r3, [sp, #12]
 589 0016 0493     		str	r3, [sp, #16]
 590 0018 0593     		str	r3, [sp, #20]
 133:Core/Src/main.c ****   RCC_OscInitStruct.HSEState = RCC_HSE_ON;
 591              		.loc 1 133 3 is_stmt 1 view .LVU130
 133:Core/Src/main.c ****   RCC_OscInitStruct.HSEState = RCC_HSE_ON;
 592              		.loc 1 133 36 is_stmt 0 view .LVU131
 593 001a 0122     		movs	r2, #1
 594 001c 0692     		str	r2, [sp, #24]
 134:Core/Src/main.c ****   RCC_OscInitStruct.HSEPredivValue = RCC_HSE_PREDIV_DIV1;
 595              		.loc 1 134 3 is_stmt 1 view .LVU132
 134:Core/Src/main.c ****   RCC_OscInitStruct.HSEPredivValue = RCC_HSE_PREDIV_DIV1;
 596              		.loc 1 134 30 is_stmt 0 view .LVU133
 597 001e 4FF48033 		mov	r3, #65536
ARM GAS  C:\Users\84935\AppData\Local\Temp\ccvgNpob.s 			page 20


 598 0022 0793     		str	r3, [sp, #28]
 135:Core/Src/main.c ****   RCC_OscInitStruct.HSIState = RCC_HSI_ON;
 599              		.loc 1 135 3 is_stmt 1 view .LVU134
 136:Core/Src/main.c ****   RCC_OscInitStruct.PLL.PLLState = RCC_PLL_ON;
 600              		.loc 1 136 3 view .LVU135
 136:Core/Src/main.c ****   RCC_OscInitStruct.PLL.PLLState = RCC_PLL_ON;
 601              		.loc 1 136 30 is_stmt 0 view .LVU136
 602 0024 0A92     		str	r2, [sp, #40]
 137:Core/Src/main.c ****   RCC_OscInitStruct.PLL.PLLSource = RCC_PLLSOURCE_HSE;
 603              		.loc 1 137 3 is_stmt 1 view .LVU137
 137:Core/Src/main.c ****   RCC_OscInitStruct.PLL.PLLSource = RCC_PLLSOURCE_HSE;
 604              		.loc 1 137 34 is_stmt 0 view .LVU138
 605 0026 0222     		movs	r2, #2
 606 0028 0D92     		str	r2, [sp, #52]
 138:Core/Src/main.c ****   RCC_OscInitStruct.PLL.PLLMUL = RCC_PLL_MUL9;
 607              		.loc 1 138 3 is_stmt 1 view .LVU139
 138:Core/Src/main.c ****   RCC_OscInitStruct.PLL.PLLMUL = RCC_PLL_MUL9;
 608              		.loc 1 138 35 is_stmt 0 view .LVU140
 609 002a 0E93     		str	r3, [sp, #56]
 139:Core/Src/main.c ****   if (HAL_RCC_OscConfig(&RCC_OscInitStruct) != HAL_OK)
 610              		.loc 1 139 3 is_stmt 1 view .LVU141
 139:Core/Src/main.c ****   if (HAL_RCC_OscConfig(&RCC_OscInitStruct) != HAL_OK)
 611              		.loc 1 139 32 is_stmt 0 view .LVU142
 612 002c 4FF4E013 		mov	r3, #1835008
 613 0030 0F93     		str	r3, [sp, #60]
 140:Core/Src/main.c ****   {
 614              		.loc 1 140 3 is_stmt 1 view .LVU143
 140:Core/Src/main.c ****   {
 615              		.loc 1 140 7 is_stmt 0 view .LVU144
 616 0032 06A8     		add	r0, sp, #24
 617 0034 FFF7FEFF 		bl	HAL_RCC_OscConfig
 618              	.LVL33:
 140:Core/Src/main.c ****   {
 619              		.loc 1 140 6 view .LVU145
 620 0038 80B9     		cbnz	r0, .L43
 147:Core/Src/main.c ****                               |RCC_CLOCKTYPE_PCLK1|RCC_CLOCKTYPE_PCLK2;
 621              		.loc 1 147 3 is_stmt 1 view .LVU146
 147:Core/Src/main.c ****                               |RCC_CLOCKTYPE_PCLK1|RCC_CLOCKTYPE_PCLK2;
 622              		.loc 1 147 31 is_stmt 0 view .LVU147
 623 003a 0F23     		movs	r3, #15
 624 003c 0193     		str	r3, [sp, #4]
 149:Core/Src/main.c ****   RCC_ClkInitStruct.AHBCLKDivider = RCC_SYSCLK_DIV1;
 625              		.loc 1 149 3 is_stmt 1 view .LVU148
 149:Core/Src/main.c ****   RCC_ClkInitStruct.AHBCLKDivider = RCC_SYSCLK_DIV1;
 626              		.loc 1 149 34 is_stmt 0 view .LVU149
 627 003e 0221     		movs	r1, #2
 628 0040 0291     		str	r1, [sp, #8]
 150:Core/Src/main.c ****   RCC_ClkInitStruct.APB1CLKDivider = RCC_HCLK_DIV2;
 629              		.loc 1 150 3 is_stmt 1 view .LVU150
 150:Core/Src/main.c ****   RCC_ClkInitStruct.APB1CLKDivider = RCC_HCLK_DIV2;
 630              		.loc 1 150 35 is_stmt 0 view .LVU151
 631 0042 0023     		movs	r3, #0
 632 0044 0393     		str	r3, [sp, #12]
 151:Core/Src/main.c ****   RCC_ClkInitStruct.APB2CLKDivider = RCC_HCLK_DIV1;
 633              		.loc 1 151 3 is_stmt 1 view .LVU152
 151:Core/Src/main.c ****   RCC_ClkInitStruct.APB2CLKDivider = RCC_HCLK_DIV1;
 634              		.loc 1 151 36 is_stmt 0 view .LVU153
ARM GAS  C:\Users\84935\AppData\Local\Temp\ccvgNpob.s 			page 21


 635 0046 4FF48062 		mov	r2, #1024
 636 004a 0492     		str	r2, [sp, #16]
 152:Core/Src/main.c **** 
 637              		.loc 1 152 3 is_stmt 1 view .LVU154
 152:Core/Src/main.c **** 
 638              		.loc 1 152 36 is_stmt 0 view .LVU155
 639 004c 0593     		str	r3, [sp, #20]
 154:Core/Src/main.c ****   {
 640              		.loc 1 154 3 is_stmt 1 view .LVU156
 154:Core/Src/main.c ****   {
 641              		.loc 1 154 7 is_stmt 0 view .LVU157
 642 004e 01A8     		add	r0, sp, #4
 643 0050 FFF7FEFF 		bl	HAL_RCC_ClockConfig
 644              	.LVL34:
 154:Core/Src/main.c ****   {
 645              		.loc 1 154 6 view .LVU158
 646 0054 20B9     		cbnz	r0, .L44
 158:Core/Src/main.c **** 
 647              		.loc 1 158 1 view .LVU159
 648 0056 11B0     		add	sp, sp, #68
 649              	.LCFI12:
 650              		.cfi_remember_state
 651              		.cfi_def_cfa_offset 4
 652              		@ sp needed
 653 0058 5DF804FB 		ldr	pc, [sp], #4
 654              	.L43:
 655              	.LCFI13:
 656              		.cfi_restore_state
 142:Core/Src/main.c ****   }
 657              		.loc 1 142 5 is_stmt 1 view .LVU160
 658 005c FFF7FEFF 		bl	Error_Handler
 659              	.LVL35:
 660              	.L44:
 156:Core/Src/main.c ****   }
 661              		.loc 1 156 5 view .LVU161
 662 0060 FFF7FEFF 		bl	Error_Handler
 663              	.LVL36:
 664              		.cfi_endproc
 665              	.LFE74:
 667              		.section	.text.main,"ax",%progbits
 668              		.align	1
 669              		.global	main
 670              		.syntax unified
 671              		.thumb
 672              		.thumb_func
 674              	main:
 675              	.LFB70:
  46:Core/Src/main.c ****   // System initialization
 676              		.loc 1 46 1 view -0
 677              		.cfi_startproc
 678              		@ Volatile: function does not return.
 679              		@ args = 0, pretend = 0, frame = 0
 680              		@ frame_needed = 0, uses_anonymous_args = 0
 681 0000 08B5     		push	{r3, lr}
 682              	.LCFI14:
 683              		.cfi_def_cfa_offset 8
 684              		.cfi_offset 3, -8
ARM GAS  C:\Users\84935\AppData\Local\Temp\ccvgNpob.s 			page 22


 685              		.cfi_offset 14, -4
  48:Core/Src/main.c ****   SystemClock_Config();
 686              		.loc 1 48 3 view .LVU163
 687 0002 FFF7FEFF 		bl	HAL_Init
 688              	.LVL37:
  49:Core/Src/main.c ****   MX_GPIO_Init();
 689              		.loc 1 49 3 view .LVU164
 690 0006 FFF7FEFF 		bl	SystemClock_Config
 691              	.LVL38:
  50:Core/Src/main.c ****   MX_DMA_Init();
 692              		.loc 1 50 3 view .LVU165
 693 000a FFF7FEFF 		bl	MX_GPIO_Init
 694              	.LVL39:
  51:Core/Src/main.c ****   MX_USART1_UART_Init();
 695              		.loc 1 51 3 view .LVU166
 696 000e FFF7FEFF 		bl	MX_DMA_Init
 697              	.LVL40:
  52:Core/Src/main.c ****   
 698              		.loc 1 52 3 view .LVU167
 699 0012 FFF7FEFF 		bl	MX_USART1_UART_Init
 700              	.LVL41:
  55:Core/Src/main.c **** 
 701              		.loc 1 55 3 view .LVU168
 702 0016 FFF7FEFF 		bl	DWT_Delay_Init
 703              	.LVL42:
  58:Core/Src/main.c ****   // Disable the half transfer interrupt
 704              		.loc 1 58 3 view .LVU169
 705 001a 0522     		movs	r2, #5
 706 001c 0B49     		ldr	r1, .L49
 707 001e 0C48     		ldr	r0, .L49+4
 708 0020 FFF7FEFF 		bl	HAL_UARTEx_ReceiveToIdle_DMA
 709              	.LVL43:
  60:Core/Src/main.c ****   // Initiate the step motor connection
 710              		.loc 1 60 3 view .LVU170
 711 0024 0B4B     		ldr	r3, .L49+8
 712 0026 1A68     		ldr	r2, [r3]
 713 0028 1368     		ldr	r3, [r2]
 714 002a 23F00403 		bic	r3, r3, #4
 715 002e 1360     		str	r3, [r2]
  62:Core/Src/main.c **** 
 716              		.loc 1 62 3 view .LVU171
 717 0030 FFF7FEFF 		bl	stepInit
 718              	.LVL44:
 719              	.L46:
  64:Core/Src/main.c ****   {
 720              		.loc 1 64 3 view .LVU172
  66:Core/Src/main.c ****     {
 721              		.loc 1 66 5 view .LVU173
  66:Core/Src/main.c ****     {
 722              		.loc 1 66 13 is_stmt 0 view .LVU174
 723 0034 084B     		ldr	r3, .L49+12
 724 0036 1B78     		ldrb	r3, [r3]	@ zero_extendqisi2
  66:Core/Src/main.c ****     {
 725              		.loc 1 66 7 view .LVU175
 726 0038 012B     		cmp	r3, #1
 727 003a FBD1     		bne	.L46
  68:Core/Src/main.c ****       speedCtrl(command);
ARM GAS  C:\Users\84935\AppData\Local\Temp\ccvgNpob.s 			page 23


 728              		.loc 1 68 7 is_stmt 1 view .LVU176
  68:Core/Src/main.c ****       speedCtrl(command);
 729              		.loc 1 68 27 is_stmt 0 view .LVU177
 730 003c 034B     		ldr	r3, .L49
 731 003e 1878     		ldrb	r0, [r3]	@ zero_extendqisi2
  68:Core/Src/main.c ****       speedCtrl(command);
 732              		.loc 1 68 15 view .LVU178
 733 0040 064B     		ldr	r3, .L49+16
 734 0042 1870     		strb	r0, [r3]
  69:Core/Src/main.c ****     }   
 735              		.loc 1 69 7 is_stmt 1 view .LVU179
 736 0044 FFF7FEFF 		bl	speedCtrl
 737              	.LVL45:
 738 0048 F4E7     		b	.L46
 739              	.L50:
 740 004a 00BF     		.align	2
 741              	.L49:
 742 004c 00000000 		.word	.LANCHOR0
 743 0050 00000000 		.word	.LANCHOR3
 744 0054 00000000 		.word	.LANCHOR5
 745 0058 00000000 		.word	.LANCHOR2
 746 005c 00000000 		.word	.LANCHOR6
 747              		.cfi_endproc
 748              	.LFE70:
 750              		.global	dir
 751              		.global	command
 752              		.global	mode
 753              		.global	send_msg
 754              		.global	rcv_buffer
 755              		.global	hdma_usart1_rx
 756              		.global	huart1
 757              		.section	.bss.command,"aw",%nobits
 758              		.set	.LANCHOR6,. + 0
 761              	command:
 762 0000 00       		.space	1
 763              		.section	.bss.hdma_usart1_rx,"aw",%nobits
 764              		.align	2
 765              		.set	.LANCHOR5,. + 0
 768              	hdma_usart1_rx:
 769 0000 00000000 		.space	68
 769      00000000 
 769      00000000 
 769      00000000 
 769      00000000 
 770              		.section	.bss.huart1,"aw",%nobits
 771              		.align	2
 772              		.set	.LANCHOR3,. + 0
 775              	huart1:
 776 0000 00000000 		.space	72
 776      00000000 
 776      00000000 
 776      00000000 
 776      00000000 
 777              		.section	.bss.mode,"aw",%nobits
 778              		.set	.LANCHOR2,. + 0
 781              	mode:
 782 0000 00       		.space	1
ARM GAS  C:\Users\84935\AppData\Local\Temp\ccvgNpob.s 			page 24


 783              		.section	.bss.rcv_buffer,"aw",%nobits
 784              		.align	2
 785              		.set	.LANCHOR0,. + 0
 788              	rcv_buffer:
 789 0000 00000000 		.space	5
 789      00
 790              		.section	.bss.send_msg,"aw",%nobits
 791              		.align	2
 792              		.set	.LANCHOR4,. + 0
 795              	send_msg:
 796 0000 00000000 		.space	30
 796      00000000 
 796      00000000 
 796      00000000 
 796      00000000 
 797              		.section	.data.dir,"aw"
 798              		.set	.LANCHOR1,. + 0
 801              	dir:
 802 0000 01       		.byte	1
 803              		.text
 804              	.Letext0:
 805              		.file 3 "c:\\users\\84935\\stm32f103c8t6\\tools\\gcc-arm-none-eabi-10.3-2021.10-win32\\gcc-arm-non
 806              		.file 4 "c:\\users\\84935\\stm32f103c8t6\\tools\\gcc-arm-none-eabi-10.3-2021.10-win32\\gcc-arm-non
 807              		.file 5 "Drivers/CMSIS/Device/ST/STM32F1xx/Include/stm32f103xb.h"
 808              		.file 6 "Drivers/STM32F1xx_HAL_Driver/Inc/stm32f1xx_hal_def.h"
 809              		.file 7 "Drivers/STM32F1xx_HAL_Driver/Inc/stm32f1xx_hal_rcc.h"
 810              		.file 8 "Drivers/STM32F1xx_HAL_Driver/Inc/stm32f1xx_hal_rcc_ex.h"
 811              		.file 9 "Drivers/STM32F1xx_HAL_Driver/Inc/stm32f1xx_hal_gpio.h"
 812              		.file 10 "Drivers/STM32F1xx_HAL_Driver/Inc/stm32f1xx_hal_dma.h"
 813              		.file 11 "Drivers/STM32F1xx_HAL_Driver/Inc/stm32f1xx_hal_uart.h"
 814              		.file 12 "Core/Src/../../ECUAL/StepMotor/StepMotor.h"
 815              		.file 13 "Drivers/STM32F1xx_HAL_Driver/Inc/stm32f1xx_hal_cortex.h"
 816              		.file 14 "c:\\users\\84935\\stm32f103c8t6\\tools\\gcc-arm-none-eabi-10.3-2021.10-win32\\gcc-arm-no
 817              		.file 15 "c:\\users\\84935\\stm32f103c8t6\\tools\\gcc-arm-none-eabi-10.3-2021.10-win32\\gcc-arm-no
 818              		.file 16 "c:\\users\\84935\\stm32f103c8t6\\tools\\gcc-arm-none-eabi-10.3-2021.10-win32\\gcc-arm-no
 819              		.file 17 "Drivers/STM32F1xx_HAL_Driver/Inc/stm32f1xx_hal.h"
 820              		.file 18 "util/../util/DWT_Delay.h"
 821              		.file 19 "<built-in>"
ARM GAS  C:\Users\84935\AppData\Local\Temp\ccvgNpob.s 			page 25

