ARM GAS  C:\Users\84935\AppData\Local\Temp\ccHwlaHS.s 			page 1


   1              		.cpu cortex-m3
   2              		.arch armv7-m
   3              		.fpu softvfp
   4              		.eabi_attribute 20, 1
   5              		.eabi_attribute 21, 1
   6              		.eabi_attribute 23, 3
   7              		.eabi_attribute 24, 1
   8              		.eabi_attribute 25, 1
   9              		.eabi_attribute 26, 1
  10              		.eabi_attribute 30, 1
  11              		.eabi_attribute 34, 1
  12              		.eabi_attribute 18, 4
  13              		.file	"main.c"
  14              		.text
  15              	.Ltext0:
  16              		.cfi_sections	.debug_frame
  17              		.section	.text.MX_GPIO_Init,"ax",%progbits
  18              		.align	1
  19              		.syntax unified
  20              		.thumb
  21              		.thumb_func
  23              	MX_GPIO_Init:
  24              	.LFB75:
  25              		.file 1 "Core/Src/main.c"
   1:Core/Src/main.c **** /* USER CODE BEGIN Header */
   2:Core/Src/main.c **** /**
   3:Core/Src/main.c ****   ******************************************************************************
   4:Core/Src/main.c ****   * @file           : main.c
   5:Core/Src/main.c ****   * @brief          : Main program body
   6:Core/Src/main.c ****   ******************************************************************************
   7:Core/Src/main.c ****   * @attention
   8:Core/Src/main.c ****   *
   9:Core/Src/main.c ****   * Copyright (c) 2023 STMicroelectronics.
  10:Core/Src/main.c ****   * All rights reserved.
  11:Core/Src/main.c ****   *
  12:Core/Src/main.c ****   * This software is licensed under terms that can be found in the LICENSE file
  13:Core/Src/main.c ****   * in the root directory of this software component.
  14:Core/Src/main.c ****   * If no LICENSE file comes with this software, it is provided AS-IS.
  15:Core/Src/main.c ****   *
  16:Core/Src/main.c ****   ******************************************************************************
  17:Core/Src/main.c ****   */
  18:Core/Src/main.c **** /* USER CODE END Header */
  19:Core/Src/main.c **** /* Includes ------------------------------------------------------------------*/
  20:Core/Src/main.c **** #include "main.h"
  21:Core/Src/main.c **** #include <stdlib.h>
  22:Core/Src/main.c **** #include <stdio.h>
  23:Core/Src/main.c **** #include <string.h>
  24:Core/Src/main.c **** #include "../../ECUAL/StepMotor/StepMotor.h"
  25:Core/Src/main.c **** 
  26:Core/Src/main.c **** UART_HandleTypeDef huart1;
  27:Core/Src/main.c **** DMA_HandleTypeDef hdma_usart1_rx;
  28:Core/Src/main.c **** 
  29:Core/Src/main.c **** void SystemClock_Config(void);
  30:Core/Src/main.c **** static void MX_GPIO_Init(void);
  31:Core/Src/main.c **** static void MX_DMA_Init(void);
  32:Core/Src/main.c **** static void MX_USART1_UART_Init(void);
  33:Core/Src/main.c **** void commandExec(uint16_t data_size);
ARM GAS  C:\Users\84935\AppData\Local\Temp\ccHwlaHS.s 			page 2


  34:Core/Src/main.c **** 
  35:Core/Src/main.c **** // Define the length of the receive buffer
  36:Core/Src/main.c **** #define BUFFER_SIZE 5
  37:Core/Src/main.c **** uint8_t rcv_buffer[BUFFER_SIZE] = {0};
  38:Core/Src/main.c **** char send_msg[30];
  39:Core/Src/main.c **** uint8_t mode = 0;
  40:Core/Src/main.c **** // The initial direction of the motor
  41:Core/Src/main.c **** uint8_t dir = 1;
  42:Core/Src/main.c **** 
  43:Core/Src/main.c **** int main(void)
  44:Core/Src/main.c **** {
  45:Core/Src/main.c ****   // System initialization
  46:Core/Src/main.c ****   HAL_Init();
  47:Core/Src/main.c ****   SystemClock_Config();
  48:Core/Src/main.c ****   MX_GPIO_Init();
  49:Core/Src/main.c ****   MX_DMA_Init();
  50:Core/Src/main.c ****   MX_USART1_UART_Init();
  51:Core/Src/main.c ****   
  52:Core/Src/main.c ****   // Configure the USART DMA module
  53:Core/Src/main.c ****   HAL_UARTEx_ReceiveToIdle_DMA(&huart1, rcv_buffer, BUFFER_SIZE);
  54:Core/Src/main.c ****   // Disable the half transfer interrupt
  55:Core/Src/main.c ****   __HAL_DMA_DISABLE_IT(&hdma_usart1_rx, DMA_IT_HT);
  56:Core/Src/main.c ****   // Initiate the step motor connection
  57:Core/Src/main.c ****   stepInit();
  58:Core/Src/main.c **** 
  59:Core/Src/main.c ****   while (1)
  60:Core/Src/main.c ****   {
  61:Core/Src/main.c ****     if(mode == speed)
  62:Core/Src/main.c ****       speedCtrl(rcv_buffer[0]);
  63:Core/Src/main.c ****   }
  64:Core/Src/main.c ****   /* USER CODE END 3 */
  65:Core/Src/main.c ****   return 0;
  66:Core/Src/main.c **** }
  67:Core/Src/main.c **** 
  68:Core/Src/main.c **** // Function to handle external interrupt callback
  69:Core/Src/main.c **** void HAL_GPIO_EXTI_Callback(uint16_t GPIO_Pin)
  70:Core/Src/main.c **** {
  71:Core/Src/main.c ****   if(GPIO_Pin == STOP)
  72:Core/Src/main.c ****     brake();
  73:Core/Src/main.c **** }
  74:Core/Src/main.c **** 
  75:Core/Src/main.c **** // Function to handle USART interrupt callback
  76:Core/Src/main.c **** void HAL_UARTEx_RxEventCallback(UART_HandleTypeDef *huart, uint16_t Size)
  77:Core/Src/main.c **** {
  78:Core/Src/main.c ****   // Check if data come on USART1 channel
  79:Core/Src/main.c ****   if(huart->Instance == USART1)
  80:Core/Src/main.c ****   {
  81:Core/Src/main.c ****     // Restart the receipt
  82:Core/Src/main.c ****     HAL_UARTEx_ReceiveToIdle_DMA(&huart1, rcv_buffer, BUFFER_SIZE);
  83:Core/Src/main.c ****     __HAL_DMA_DISABLE_IT(&hdma_usart1_rx, DMA_IT_HT);
  84:Core/Src/main.c ****     // Send back receive messagefor debugging
  85:Core/Src/main.c ****     sprintf(send_msg,"Received: %s Size: %u\r\n",rcv_buffer,Size);
  86:Core/Src/main.c ****     HAL_UART_Transmit(&huart, send_msg, strlen(send_msg), 100);
  87:Core/Src/main.c ****     // Hadling the command from PC
  88:Core/Src/main.c ****     commandExec(Size); 
  89:Core/Src/main.c ****   }
  90:Core/Src/main.c **** }
ARM GAS  C:\Users\84935\AppData\Local\Temp\ccHwlaHS.s 			page 3


  91:Core/Src/main.c **** 
  92:Core/Src/main.c **** // Function to handle the command from PC
  93:Core/Src/main.c **** void commandExec(uint16_t data_size)
  94:Core/Src/main.c **** {
  95:Core/Src/main.c ****   if(data_size == 1)
  96:Core/Src/main.c ****   {
  97:Core/Src/main.c ****     if(rcv_buffer[0] == direc)
  98:Core/Src/main.c ****       changeDir(&dir);
  99:Core/Src/main.c ****     else if(rcv_buffer[0] == speed1 || rcv_buffer[0] == speed2 || rcv_buffer[0] == speed3)
 100:Core/Src/main.c ****       mode = speed;
 101:Core/Src/main.c ****     else
 102:Core/Src/main.c ****       HAL_UART_Transmit(&huart1, (char*)"Invalid command!\r\n", 18, 100);
 103:Core/Src/main.c ****   }
 104:Core/Src/main.c ****   else
 105:Core/Src/main.c ****   {
 106:Core/Src/main.c ****     mode = pos;
 107:Core/Src/main.c ****     positionCtrl(angle2Step(atoi(rcv_buffer)));
 108:Core/Src/main.c ****   }
 109:Core/Src/main.c **** }
 110:Core/Src/main.c **** 
 111:Core/Src/main.c **** /**
 112:Core/Src/main.c ****   * @brief System Clock Configuration
 113:Core/Src/main.c ****   * @retval None
 114:Core/Src/main.c ****   */
 115:Core/Src/main.c **** void SystemClock_Config(void)
 116:Core/Src/main.c **** {
 117:Core/Src/main.c ****   RCC_OscInitTypeDef RCC_OscInitStruct = {0};
 118:Core/Src/main.c ****   RCC_ClkInitTypeDef RCC_ClkInitStruct = {0};
 119:Core/Src/main.c **** 
 120:Core/Src/main.c ****   /** Initializes the RCC Oscillators according to the specified parameters
 121:Core/Src/main.c ****   * in the RCC_OscInitTypeDef structure.
 122:Core/Src/main.c ****   */
 123:Core/Src/main.c ****   RCC_OscInitStruct.OscillatorType = RCC_OSCILLATORTYPE_HSE;
 124:Core/Src/main.c ****   RCC_OscInitStruct.HSEState = RCC_HSE_ON;
 125:Core/Src/main.c ****   RCC_OscInitStruct.HSEPredivValue = RCC_HSE_PREDIV_DIV1;
 126:Core/Src/main.c ****   RCC_OscInitStruct.HSIState = RCC_HSI_ON;
 127:Core/Src/main.c ****   RCC_OscInitStruct.PLL.PLLState = RCC_PLL_ON;
 128:Core/Src/main.c ****   RCC_OscInitStruct.PLL.PLLSource = RCC_PLLSOURCE_HSE;
 129:Core/Src/main.c ****   RCC_OscInitStruct.PLL.PLLMUL = RCC_PLL_MUL9;
 130:Core/Src/main.c ****   if (HAL_RCC_OscConfig(&RCC_OscInitStruct) != HAL_OK)
 131:Core/Src/main.c ****   {
 132:Core/Src/main.c ****     Error_Handler();
 133:Core/Src/main.c ****   }
 134:Core/Src/main.c **** 
 135:Core/Src/main.c ****   /** Initializes the CPU, AHB and APB buses clocks
 136:Core/Src/main.c ****   */
 137:Core/Src/main.c ****   RCC_ClkInitStruct.ClockType = RCC_CLOCKTYPE_HCLK|RCC_CLOCKTYPE_SYSCLK
 138:Core/Src/main.c ****                               |RCC_CLOCKTYPE_PCLK1|RCC_CLOCKTYPE_PCLK2;
 139:Core/Src/main.c ****   RCC_ClkInitStruct.SYSCLKSource = RCC_SYSCLKSOURCE_PLLCLK;
 140:Core/Src/main.c ****   RCC_ClkInitStruct.AHBCLKDivider = RCC_SYSCLK_DIV1;
 141:Core/Src/main.c ****   RCC_ClkInitStruct.APB1CLKDivider = RCC_HCLK_DIV2;
 142:Core/Src/main.c ****   RCC_ClkInitStruct.APB2CLKDivider = RCC_HCLK_DIV1;
 143:Core/Src/main.c **** 
 144:Core/Src/main.c ****   if (HAL_RCC_ClockConfig(&RCC_ClkInitStruct, FLASH_LATENCY_2) != HAL_OK)
 145:Core/Src/main.c ****   {
 146:Core/Src/main.c ****     Error_Handler();
 147:Core/Src/main.c ****   }
ARM GAS  C:\Users\84935\AppData\Local\Temp\ccHwlaHS.s 			page 4


 148:Core/Src/main.c **** }
 149:Core/Src/main.c **** 
 150:Core/Src/main.c **** /**
 151:Core/Src/main.c ****   * @brief USART1 Initialization Function
 152:Core/Src/main.c ****   * @param None
 153:Core/Src/main.c ****   * @retval None
 154:Core/Src/main.c ****   */
 155:Core/Src/main.c **** static void MX_USART1_UART_Init(void)
 156:Core/Src/main.c **** {
 157:Core/Src/main.c **** 
 158:Core/Src/main.c ****   /* USER CODE BEGIN USART1_Init 0 */
 159:Core/Src/main.c **** 
 160:Core/Src/main.c ****   /* USER CODE END USART1_Init 0 */
 161:Core/Src/main.c **** 
 162:Core/Src/main.c ****   /* USER CODE BEGIN USART1_Init 1 */
 163:Core/Src/main.c **** 
 164:Core/Src/main.c ****   /* USER CODE END USART1_Init 1 */
 165:Core/Src/main.c ****   huart1.Instance = USART1;
 166:Core/Src/main.c ****   huart1.Init.BaudRate = 9600;
 167:Core/Src/main.c ****   huart1.Init.WordLength = UART_WORDLENGTH_8B;
 168:Core/Src/main.c ****   huart1.Init.StopBits = UART_STOPBITS_1;
 169:Core/Src/main.c ****   huart1.Init.Parity = UART_PARITY_NONE;
 170:Core/Src/main.c ****   huart1.Init.Mode = UART_MODE_TX_RX;
 171:Core/Src/main.c ****   huart1.Init.HwFlowCtl = UART_HWCONTROL_NONE;
 172:Core/Src/main.c ****   huart1.Init.OverSampling = UART_OVERSAMPLING_16;
 173:Core/Src/main.c ****   if (HAL_UART_Init(&huart1) != HAL_OK)
 174:Core/Src/main.c ****   {
 175:Core/Src/main.c ****     Error_Handler();
 176:Core/Src/main.c ****   }
 177:Core/Src/main.c ****   /* USER CODE BEGIN USART1_Init 2 */
 178:Core/Src/main.c **** 
 179:Core/Src/main.c ****   /* USER CODE END USART1_Init 2 */
 180:Core/Src/main.c **** 
 181:Core/Src/main.c **** }
 182:Core/Src/main.c **** 
 183:Core/Src/main.c **** /**
 184:Core/Src/main.c ****   * Enable DMA controller clock
 185:Core/Src/main.c ****   */
 186:Core/Src/main.c **** static void MX_DMA_Init(void)
 187:Core/Src/main.c **** {
 188:Core/Src/main.c **** 
 189:Core/Src/main.c ****   /* DMA controller clock enable */
 190:Core/Src/main.c ****   __HAL_RCC_DMA1_CLK_ENABLE();
 191:Core/Src/main.c **** 
 192:Core/Src/main.c ****   /* DMA interrupt init */
 193:Core/Src/main.c ****   /* DMA1_Channel5_IRQn interrupt configuration */
 194:Core/Src/main.c ****   HAL_NVIC_SetPriority(DMA1_Channel5_IRQn, 0, 0);
 195:Core/Src/main.c ****   HAL_NVIC_EnableIRQ(DMA1_Channel5_IRQn);
 196:Core/Src/main.c **** 
 197:Core/Src/main.c **** }
 198:Core/Src/main.c **** 
 199:Core/Src/main.c **** /**
 200:Core/Src/main.c ****   * @brief GPIO Initialization Function
 201:Core/Src/main.c ****   * @param None
 202:Core/Src/main.c ****   * @retval None
 203:Core/Src/main.c ****   */
 204:Core/Src/main.c **** static void MX_GPIO_Init(void)
ARM GAS  C:\Users\84935\AppData\Local\Temp\ccHwlaHS.s 			page 5


 205:Core/Src/main.c **** {
  26              		.loc 1 205 1 view -0
  27              		.cfi_startproc
  28              		@ args = 0, pretend = 0, frame = 32
  29              		@ frame_needed = 0, uses_anonymous_args = 0
  30 0000 30B5     		push	{r4, r5, lr}
  31              	.LCFI0:
  32              		.cfi_def_cfa_offset 12
  33              		.cfi_offset 4, -12
  34              		.cfi_offset 5, -8
  35              		.cfi_offset 14, -4
  36 0002 89B0     		sub	sp, sp, #36
  37              	.LCFI1:
  38              		.cfi_def_cfa_offset 48
 206:Core/Src/main.c ****   GPIO_InitTypeDef GPIO_InitStruct = {0};
  39              		.loc 1 206 3 view .LVU1
  40              		.loc 1 206 20 is_stmt 0 view .LVU2
  41 0004 0024     		movs	r4, #0
  42 0006 0494     		str	r4, [sp, #16]
  43 0008 0594     		str	r4, [sp, #20]
  44 000a 0694     		str	r4, [sp, #24]
  45 000c 0794     		str	r4, [sp, #28]
 207:Core/Src/main.c **** /* USER CODE BEGIN MX_GPIO_Init_1 */
 208:Core/Src/main.c **** /* USER CODE END MX_GPIO_Init_1 */
 209:Core/Src/main.c **** 
 210:Core/Src/main.c ****   /* GPIO Ports Clock Enable */
 211:Core/Src/main.c ****   __HAL_RCC_GPIOD_CLK_ENABLE();
  46              		.loc 1 211 3 is_stmt 1 view .LVU3
  47              	.LBB4:
  48              		.loc 1 211 3 view .LVU4
  49              		.loc 1 211 3 view .LVU5
  50 000e 204B     		ldr	r3, .L3
  51 0010 9A69     		ldr	r2, [r3, #24]
  52 0012 42F02002 		orr	r2, r2, #32
  53 0016 9A61     		str	r2, [r3, #24]
  54              		.loc 1 211 3 view .LVU6
  55 0018 9A69     		ldr	r2, [r3, #24]
  56 001a 02F02002 		and	r2, r2, #32
  57 001e 0192     		str	r2, [sp, #4]
  58              		.loc 1 211 3 view .LVU7
  59 0020 019A     		ldr	r2, [sp, #4]
  60              	.LBE4:
  61              		.loc 1 211 3 view .LVU8
 212:Core/Src/main.c ****   __HAL_RCC_GPIOA_CLK_ENABLE();
  62              		.loc 1 212 3 view .LVU9
  63              	.LBB5:
  64              		.loc 1 212 3 view .LVU10
  65              		.loc 1 212 3 view .LVU11
  66 0022 9A69     		ldr	r2, [r3, #24]
  67 0024 42F00402 		orr	r2, r2, #4
  68 0028 9A61     		str	r2, [r3, #24]
  69              		.loc 1 212 3 view .LVU12
  70 002a 9A69     		ldr	r2, [r3, #24]
  71 002c 02F00402 		and	r2, r2, #4
  72 0030 0292     		str	r2, [sp, #8]
  73              		.loc 1 212 3 view .LVU13
  74 0032 029A     		ldr	r2, [sp, #8]
ARM GAS  C:\Users\84935\AppData\Local\Temp\ccHwlaHS.s 			page 6


  75              	.LBE5:
  76              		.loc 1 212 3 view .LVU14
 213:Core/Src/main.c ****   __HAL_RCC_GPIOB_CLK_ENABLE();
  77              		.loc 1 213 3 view .LVU15
  78              	.LBB6:
  79              		.loc 1 213 3 view .LVU16
  80              		.loc 1 213 3 view .LVU17
  81 0034 9A69     		ldr	r2, [r3, #24]
  82 0036 42F00802 		orr	r2, r2, #8
  83 003a 9A61     		str	r2, [r3, #24]
  84              		.loc 1 213 3 view .LVU18
  85 003c 9B69     		ldr	r3, [r3, #24]
  86 003e 03F00803 		and	r3, r3, #8
  87 0042 0393     		str	r3, [sp, #12]
  88              		.loc 1 213 3 view .LVU19
  89 0044 039B     		ldr	r3, [sp, #12]
  90              	.LBE6:
  91              		.loc 1 213 3 view .LVU20
 214:Core/Src/main.c **** 
 215:Core/Src/main.c ****   /*Configure GPIO pin Output Level */
 216:Core/Src/main.c ****   HAL_GPIO_WritePin(GPIOB, GPIO_PIN_3|GPIO_PIN_4|GPIO_PIN_5, GPIO_PIN_RESET);
  92              		.loc 1 216 3 view .LVU21
  93 0046 134D     		ldr	r5, .L3+4
  94 0048 2246     		mov	r2, r4
  95 004a 3821     		movs	r1, #56
  96 004c 2846     		mov	r0, r5
  97 004e FFF7FEFF 		bl	HAL_GPIO_WritePin
  98              	.LVL0:
 217:Core/Src/main.c **** 
 218:Core/Src/main.c ****   /*Configure GPIO pins : PB3 PB4 PB5 */
 219:Core/Src/main.c ****   GPIO_InitStruct.Pin = GPIO_PIN_3|GPIO_PIN_4|GPIO_PIN_5;
  99              		.loc 1 219 3 view .LVU22
 100              		.loc 1 219 23 is_stmt 0 view .LVU23
 101 0052 3823     		movs	r3, #56
 102 0054 0493     		str	r3, [sp, #16]
 220:Core/Src/main.c ****   GPIO_InitStruct.Mode = GPIO_MODE_OUTPUT_PP;
 103              		.loc 1 220 3 is_stmt 1 view .LVU24
 104              		.loc 1 220 24 is_stmt 0 view .LVU25
 105 0056 0123     		movs	r3, #1
 106 0058 0593     		str	r3, [sp, #20]
 221:Core/Src/main.c ****   GPIO_InitStruct.Pull = GPIO_NOPULL;
 107              		.loc 1 221 3 is_stmt 1 view .LVU26
 108              		.loc 1 221 24 is_stmt 0 view .LVU27
 109 005a 0694     		str	r4, [sp, #24]
 222:Core/Src/main.c ****   GPIO_InitStruct.Speed = GPIO_SPEED_FREQ_LOW;
 110              		.loc 1 222 3 is_stmt 1 view .LVU28
 111              		.loc 1 222 25 is_stmt 0 view .LVU29
 112 005c 0223     		movs	r3, #2
 113 005e 0793     		str	r3, [sp, #28]
 223:Core/Src/main.c ****   HAL_GPIO_Init(GPIOB, &GPIO_InitStruct);
 114              		.loc 1 223 3 is_stmt 1 view .LVU30
 115 0060 04A9     		add	r1, sp, #16
 116 0062 2846     		mov	r0, r5
 117 0064 FFF7FEFF 		bl	HAL_GPIO_Init
 118              	.LVL1:
 224:Core/Src/main.c **** 
 225:Core/Src/main.c ****   /*Configure GPIO pin : PB6 */
ARM GAS  C:\Users\84935\AppData\Local\Temp\ccHwlaHS.s 			page 7


 226:Core/Src/main.c ****   GPIO_InitStruct.Pin = GPIO_PIN_6;
 119              		.loc 1 226 3 view .LVU31
 120              		.loc 1 226 23 is_stmt 0 view .LVU32
 121 0068 4023     		movs	r3, #64
 122 006a 0493     		str	r3, [sp, #16]
 227:Core/Src/main.c ****   GPIO_InitStruct.Mode = GPIO_MODE_IT_RISING;
 123              		.loc 1 227 3 is_stmt 1 view .LVU33
 124              		.loc 1 227 24 is_stmt 0 view .LVU34
 125 006c 0A4B     		ldr	r3, .L3+8
 126 006e 0593     		str	r3, [sp, #20]
 228:Core/Src/main.c ****   GPIO_InitStruct.Pull = GPIO_NOPULL;
 127              		.loc 1 228 3 is_stmt 1 view .LVU35
 128              		.loc 1 228 24 is_stmt 0 view .LVU36
 129 0070 0694     		str	r4, [sp, #24]
 229:Core/Src/main.c ****   HAL_GPIO_Init(GPIOB, &GPIO_InitStruct);
 130              		.loc 1 229 3 is_stmt 1 view .LVU37
 131 0072 04A9     		add	r1, sp, #16
 132 0074 2846     		mov	r0, r5
 133 0076 FFF7FEFF 		bl	HAL_GPIO_Init
 134              	.LVL2:
 230:Core/Src/main.c **** 
 231:Core/Src/main.c ****   /* EXTI interrupt init*/
 232:Core/Src/main.c ****   HAL_NVIC_SetPriority(EXTI9_5_IRQn, 0, 0);
 135              		.loc 1 232 3 view .LVU38
 136 007a 2246     		mov	r2, r4
 137 007c 2146     		mov	r1, r4
 138 007e 1720     		movs	r0, #23
 139 0080 FFF7FEFF 		bl	HAL_NVIC_SetPriority
 140              	.LVL3:
 233:Core/Src/main.c ****   HAL_NVIC_EnableIRQ(EXTI9_5_IRQn);
 141              		.loc 1 233 3 view .LVU39
 142 0084 1720     		movs	r0, #23
 143 0086 FFF7FEFF 		bl	HAL_NVIC_EnableIRQ
 144              	.LVL4:
 234:Core/Src/main.c **** 
 235:Core/Src/main.c **** /* USER CODE BEGIN MX_GPIO_Init_2 */
 236:Core/Src/main.c **** /* USER CODE END MX_GPIO_Init_2 */
 237:Core/Src/main.c **** }
 145              		.loc 1 237 1 is_stmt 0 view .LVU40
 146 008a 09B0     		add	sp, sp, #36
 147              	.LCFI2:
 148              		.cfi_def_cfa_offset 12
 149              		@ sp needed
 150 008c 30BD     		pop	{r4, r5, pc}
 151              	.L4:
 152 008e 00BF     		.align	2
 153              	.L3:
 154 0090 00100240 		.word	1073876992
 155 0094 000C0140 		.word	1073810432
 156 0098 00001110 		.word	269549568
 157              		.cfi_endproc
 158              	.LFE75:
 160              		.section	.text.MX_DMA_Init,"ax",%progbits
 161              		.align	1
 162              		.syntax unified
 163              		.thumb
 164              		.thumb_func
ARM GAS  C:\Users\84935\AppData\Local\Temp\ccHwlaHS.s 			page 8


 166              	MX_DMA_Init:
 167              	.LFB74:
 187:Core/Src/main.c **** 
 168              		.loc 1 187 1 is_stmt 1 view -0
 169              		.cfi_startproc
 170              		@ args = 0, pretend = 0, frame = 8
 171              		@ frame_needed = 0, uses_anonymous_args = 0
 172 0000 00B5     		push	{lr}
 173              	.LCFI3:
 174              		.cfi_def_cfa_offset 4
 175              		.cfi_offset 14, -4
 176 0002 83B0     		sub	sp, sp, #12
 177              	.LCFI4:
 178              		.cfi_def_cfa_offset 16
 190:Core/Src/main.c **** 
 179              		.loc 1 190 3 view .LVU42
 180              	.LBB7:
 190:Core/Src/main.c **** 
 181              		.loc 1 190 3 view .LVU43
 190:Core/Src/main.c **** 
 182              		.loc 1 190 3 view .LVU44
 183 0004 0A4B     		ldr	r3, .L7
 184 0006 5A69     		ldr	r2, [r3, #20]
 185 0008 42F00102 		orr	r2, r2, #1
 186 000c 5A61     		str	r2, [r3, #20]
 190:Core/Src/main.c **** 
 187              		.loc 1 190 3 view .LVU45
 188 000e 5B69     		ldr	r3, [r3, #20]
 189 0010 03F00103 		and	r3, r3, #1
 190 0014 0193     		str	r3, [sp, #4]
 190:Core/Src/main.c **** 
 191              		.loc 1 190 3 view .LVU46
 192 0016 019B     		ldr	r3, [sp, #4]
 193              	.LBE7:
 190:Core/Src/main.c **** 
 194              		.loc 1 190 3 view .LVU47
 194:Core/Src/main.c ****   HAL_NVIC_EnableIRQ(DMA1_Channel5_IRQn);
 195              		.loc 1 194 3 view .LVU48
 196 0018 0022     		movs	r2, #0
 197 001a 1146     		mov	r1, r2
 198 001c 0F20     		movs	r0, #15
 199 001e FFF7FEFF 		bl	HAL_NVIC_SetPriority
 200              	.LVL5:
 195:Core/Src/main.c **** 
 201              		.loc 1 195 3 view .LVU49
 202 0022 0F20     		movs	r0, #15
 203 0024 FFF7FEFF 		bl	HAL_NVIC_EnableIRQ
 204              	.LVL6:
 197:Core/Src/main.c **** 
 205              		.loc 1 197 1 is_stmt 0 view .LVU50
 206 0028 03B0     		add	sp, sp, #12
 207              	.LCFI5:
 208              		.cfi_def_cfa_offset 4
 209              		@ sp needed
 210 002a 5DF804FB 		ldr	pc, [sp], #4
 211              	.L8:
 212 002e 00BF     		.align	2
ARM GAS  C:\Users\84935\AppData\Local\Temp\ccHwlaHS.s 			page 9


 213              	.L7:
 214 0030 00100240 		.word	1073876992
 215              		.cfi_endproc
 216              	.LFE74:
 218              		.section	.text.HAL_GPIO_EXTI_Callback,"ax",%progbits
 219              		.align	1
 220              		.global	HAL_GPIO_EXTI_Callback
 221              		.syntax unified
 222              		.thumb
 223              		.thumb_func
 225              	HAL_GPIO_EXTI_Callback:
 226              	.LVL7:
 227              	.LFB69:
  70:Core/Src/main.c ****   if(GPIO_Pin == STOP)
 228              		.loc 1 70 1 is_stmt 1 view -0
 229              		.cfi_startproc
 230              		@ args = 0, pretend = 0, frame = 0
 231              		@ frame_needed = 0, uses_anonymous_args = 0
  71:Core/Src/main.c ****     brake();
 232              		.loc 1 71 3 view .LVU52
  71:Core/Src/main.c ****     brake();
 233              		.loc 1 71 5 is_stmt 0 view .LVU53
 234 0000 4028     		cmp	r0, #64
 235 0002 00D0     		beq	.L15
 236 0004 7047     		bx	lr
 237              	.L15:
  70:Core/Src/main.c ****   if(GPIO_Pin == STOP)
 238              		.loc 1 70 1 view .LVU54
 239 0006 08B5     		push	{r3, lr}
 240              	.LCFI6:
 241              		.cfi_def_cfa_offset 8
 242              		.cfi_offset 3, -8
 243              		.cfi_offset 14, -4
  72:Core/Src/main.c **** }
 244              		.loc 1 72 5 is_stmt 1 view .LVU55
 245 0008 FFF7FEFF 		bl	brake
 246              	.LVL8:
  73:Core/Src/main.c **** 
 247              		.loc 1 73 1 is_stmt 0 view .LVU56
 248 000c 08BD     		pop	{r3, pc}
 249              		.cfi_endproc
 250              	.LFE69:
 252              		.section	.rodata.commandExec.str1.4,"aMS",%progbits,1
 253              		.align	2
 254              	.LC0:
 255 0000 496E7661 		.ascii	"Invalid command!\015\012\000"
 255      6C696420 
 255      636F6D6D 
 255      616E6421 
 255      0D0A00
 256              		.section	.text.commandExec,"ax",%progbits
 257              		.align	1
 258              		.global	commandExec
 259              		.syntax unified
 260              		.thumb
 261              		.thumb_func
 263              	commandExec:
ARM GAS  C:\Users\84935\AppData\Local\Temp\ccHwlaHS.s 			page 10


 264              	.LVL9:
 265              	.LFB71:
  94:Core/Src/main.c ****   if(data_size == 1)
 266              		.loc 1 94 1 is_stmt 1 view -0
 267              		.cfi_startproc
 268              		@ args = 0, pretend = 0, frame = 0
 269              		@ frame_needed = 0, uses_anonymous_args = 0
  94:Core/Src/main.c ****   if(data_size == 1)
 270              		.loc 1 94 1 is_stmt 0 view .LVU58
 271 0000 08B5     		push	{r3, lr}
 272              	.LCFI7:
 273              		.cfi_def_cfa_offset 8
 274              		.cfi_offset 3, -8
 275              		.cfi_offset 14, -4
  95:Core/Src/main.c ****   {
 276              		.loc 1 95 3 is_stmt 1 view .LVU59
  95:Core/Src/main.c ****   {
 277              		.loc 1 95 5 is_stmt 0 view .LVU60
 278 0002 0128     		cmp	r0, #1
 279 0004 16D1     		bne	.L17
  97:Core/Src/main.c ****       changeDir(&dir);
 280              		.loc 1 97 5 is_stmt 1 view .LVU61
  97:Core/Src/main.c ****       changeDir(&dir);
 281              		.loc 1 97 18 is_stmt 0 view .LVU62
 282 0006 114B     		ldr	r3, .L23
 283 0008 1B78     		ldrb	r3, [r3]	@ zero_extendqisi2
  97:Core/Src/main.c ****       changeDir(&dir);
 284              		.loc 1 97 7 view .LVU63
 285 000a 302B     		cmp	r3, #48
 286 000c 07D0     		beq	.L22
  99:Core/Src/main.c ****       mode = speed;
 287              		.loc 1 99 10 is_stmt 1 view .LVU64
  99:Core/Src/main.c ****       mode = speed;
 288              		.loc 1 99 64 is_stmt 0 view .LVU65
 289 000e 313B     		subs	r3, r3, #49
 290 0010 DBB2     		uxtb	r3, r3
  99:Core/Src/main.c ****       mode = speed;
 291              		.loc 1 99 12 view .LVU66
 292 0012 022B     		cmp	r3, #2
 293 0014 07D8     		bhi	.L20
 100:Core/Src/main.c ****     else
 294              		.loc 1 100 7 is_stmt 1 view .LVU67
 100:Core/Src/main.c ****     else
 295              		.loc 1 100 12 is_stmt 0 view .LVU68
 296 0016 0E4B     		ldr	r3, .L23+4
 297 0018 0122     		movs	r2, #1
 298 001a 1A70     		strb	r2, [r3]
 299 001c 15E0     		b	.L16
 300              	.L22:
  98:Core/Src/main.c ****     else if(rcv_buffer[0] == speed1 || rcv_buffer[0] == speed2 || rcv_buffer[0] == speed3)
 301              		.loc 1 98 7 is_stmt 1 view .LVU69
 302 001e 0D48     		ldr	r0, .L23+8
 303              	.LVL10:
  98:Core/Src/main.c ****     else if(rcv_buffer[0] == speed1 || rcv_buffer[0] == speed2 || rcv_buffer[0] == speed3)
 304              		.loc 1 98 7 is_stmt 0 view .LVU70
 305 0020 FFF7FEFF 		bl	changeDir
 306              	.LVL11:
ARM GAS  C:\Users\84935\AppData\Local\Temp\ccHwlaHS.s 			page 11


 307 0024 11E0     		b	.L16
 308              	.LVL12:
 309              	.L20:
 102:Core/Src/main.c ****   }
 310              		.loc 1 102 7 is_stmt 1 view .LVU71
 311 0026 6423     		movs	r3, #100
 312 0028 1222     		movs	r2, #18
 313 002a 0B49     		ldr	r1, .L23+12
 314 002c 0B48     		ldr	r0, .L23+16
 315              	.LVL13:
 102:Core/Src/main.c ****   }
 316              		.loc 1 102 7 is_stmt 0 view .LVU72
 317 002e FFF7FEFF 		bl	HAL_UART_Transmit
 318              	.LVL14:
 319 0032 0AE0     		b	.L16
 320              	.LVL15:
 321              	.L17:
 106:Core/Src/main.c ****     positionCtrl(angle2Step(atoi(rcv_buffer)));
 322              		.loc 1 106 5 is_stmt 1 view .LVU73
 106:Core/Src/main.c ****     positionCtrl(angle2Step(atoi(rcv_buffer)));
 323              		.loc 1 106 10 is_stmt 0 view .LVU74
 324 0034 064B     		ldr	r3, .L23+4
 325 0036 0222     		movs	r2, #2
 326 0038 1A70     		strb	r2, [r3]
 107:Core/Src/main.c ****   }
 327              		.loc 1 107 5 is_stmt 1 view .LVU75
 107:Core/Src/main.c ****   }
 328              		.loc 1 107 29 is_stmt 0 view .LVU76
 329 003a 0448     		ldr	r0, .L23
 330              	.LVL16:
 107:Core/Src/main.c ****   }
 331              		.loc 1 107 29 view .LVU77
 332 003c FFF7FEFF 		bl	atoi
 333              	.LVL17:
 107:Core/Src/main.c ****   }
 334              		.loc 1 107 5 view .LVU78
 335 0040 80B2     		uxth	r0, r0
 336 0042 FFF7FEFF 		bl	angle2Step
 337              	.LVL18:
 338 0046 FFF7FEFF 		bl	positionCtrl
 339              	.LVL19:
 340              	.L16:
 109:Core/Src/main.c **** 
 341              		.loc 1 109 1 view .LVU79
 342 004a 08BD     		pop	{r3, pc}
 343              	.L24:
 344              		.align	2
 345              	.L23:
 346 004c 00000000 		.word	.LANCHOR0
 347 0050 00000000 		.word	.LANCHOR2
 348 0054 00000000 		.word	.LANCHOR1
 349 0058 00000000 		.word	.LC0
 350 005c 00000000 		.word	.LANCHOR3
 351              		.cfi_endproc
 352              	.LFE71:
 354              		.section	.rodata.HAL_UARTEx_RxEventCallback.str1.4,"aMS",%progbits,1
 355              		.align	2
ARM GAS  C:\Users\84935\AppData\Local\Temp\ccHwlaHS.s 			page 12


 356              	.LC1:
 357 0000 52656365 		.ascii	"Received: %s Size: %u\015\012\000"
 357      69766564 
 357      3A202573 
 357      2053697A 
 357      653A2025 
 358              		.section	.text.HAL_UARTEx_RxEventCallback,"ax",%progbits
 359              		.align	1
 360              		.global	HAL_UARTEx_RxEventCallback
 361              		.syntax unified
 362              		.thumb
 363              		.thumb_func
 365              	HAL_UARTEx_RxEventCallback:
 366              	.LVL20:
 367              	.LFB70:
  77:Core/Src/main.c ****   // Check if data come on USART1 channel
 368              		.loc 1 77 1 is_stmt 1 view -0
 369              		.cfi_startproc
 370              		@ args = 0, pretend = 0, frame = 8
 371              		@ frame_needed = 0, uses_anonymous_args = 0
  77:Core/Src/main.c ****   // Check if data come on USART1 channel
 372              		.loc 1 77 1 is_stmt 0 view .LVU81
 373 0000 70B5     		push	{r4, r5, r6, lr}
 374              	.LCFI8:
 375              		.cfi_def_cfa_offset 16
 376              		.cfi_offset 4, -16
 377              		.cfi_offset 5, -12
 378              		.cfi_offset 6, -8
 379              		.cfi_offset 14, -4
 380 0002 82B0     		sub	sp, sp, #8
 381              	.LCFI9:
 382              		.cfi_def_cfa_offset 24
 383 0004 0190     		str	r0, [sp, #4]
  79:Core/Src/main.c ****   {
 384              		.loc 1 79 3 is_stmt 1 view .LVU82
  79:Core/Src/main.c ****   {
 385              		.loc 1 79 11 is_stmt 0 view .LVU83
 386 0006 0368     		ldr	r3, [r0]
  79:Core/Src/main.c ****   {
 387              		.loc 1 79 5 view .LVU84
 388 0008 124A     		ldr	r2, .L29
 389 000a 9342     		cmp	r3, r2
 390 000c 01D0     		beq	.L28
 391              	.LVL21:
 392              	.L25:
  90:Core/Src/main.c **** 
 393              		.loc 1 90 1 view .LVU85
 394 000e 02B0     		add	sp, sp, #8
 395              	.LCFI10:
 396              		.cfi_remember_state
 397              		.cfi_def_cfa_offset 16
 398              		@ sp needed
 399 0010 70BD     		pop	{r4, r5, r6, pc}
 400              	.LVL22:
 401              	.L28:
 402              	.LCFI11:
 403              		.cfi_restore_state
ARM GAS  C:\Users\84935\AppData\Local\Temp\ccHwlaHS.s 			page 13


  90:Core/Src/main.c **** 
 404              		.loc 1 90 1 view .LVU86
 405 0012 0C46     		mov	r4, r1
  82:Core/Src/main.c ****     __HAL_DMA_DISABLE_IT(&hdma_usart1_rx, DMA_IT_HT);
 406              		.loc 1 82 5 is_stmt 1 view .LVU87
 407 0014 104E     		ldr	r6, .L29+4
 408 0016 0522     		movs	r2, #5
 409 0018 3146     		mov	r1, r6
 410              	.LVL23:
  82:Core/Src/main.c ****     __HAL_DMA_DISABLE_IT(&hdma_usart1_rx, DMA_IT_HT);
 411              		.loc 1 82 5 is_stmt 0 view .LVU88
 412 001a 1048     		ldr	r0, .L29+8
 413              	.LVL24:
  82:Core/Src/main.c ****     __HAL_DMA_DISABLE_IT(&hdma_usart1_rx, DMA_IT_HT);
 414              		.loc 1 82 5 view .LVU89
 415 001c FFF7FEFF 		bl	HAL_UARTEx_ReceiveToIdle_DMA
 416              	.LVL25:
  83:Core/Src/main.c ****     // Send back receive messagefor debugging
 417              		.loc 1 83 5 is_stmt 1 view .LVU90
 418 0020 0F4B     		ldr	r3, .L29+12
 419 0022 1A68     		ldr	r2, [r3]
 420 0024 1368     		ldr	r3, [r2]
 421 0026 23F00403 		bic	r3, r3, #4
 422 002a 1360     		str	r3, [r2]
  85:Core/Src/main.c ****     HAL_UART_Transmit(&huart, send_msg, strlen(send_msg), 100);
 423              		.loc 1 85 5 view .LVU91
 424 002c 0D4D     		ldr	r5, .L29+16
 425 002e 2346     		mov	r3, r4
 426 0030 3246     		mov	r2, r6
 427 0032 0D49     		ldr	r1, .L29+20
 428 0034 2846     		mov	r0, r5
 429 0036 FFF7FEFF 		bl	sprintf
 430              	.LVL26:
  86:Core/Src/main.c ****     // Hadling the command from PC
 431              		.loc 1 86 5 view .LVU92
  86:Core/Src/main.c ****     // Hadling the command from PC
 432              		.loc 1 86 41 is_stmt 0 view .LVU93
 433 003a 2846     		mov	r0, r5
 434 003c FFF7FEFF 		bl	strlen
 435              	.LVL27:
  86:Core/Src/main.c ****     // Hadling the command from PC
 436              		.loc 1 86 5 view .LVU94
 437 0040 6423     		movs	r3, #100
 438 0042 82B2     		uxth	r2, r0
 439 0044 2946     		mov	r1, r5
 440 0046 01A8     		add	r0, sp, #4
 441 0048 FFF7FEFF 		bl	HAL_UART_Transmit
 442              	.LVL28:
  88:Core/Src/main.c ****   }
 443              		.loc 1 88 5 is_stmt 1 view .LVU95
 444 004c 2046     		mov	r0, r4
 445 004e FFF7FEFF 		bl	commandExec
 446              	.LVL29:
  90:Core/Src/main.c **** 
 447              		.loc 1 90 1 is_stmt 0 view .LVU96
 448 0052 DCE7     		b	.L25
 449              	.L30:
ARM GAS  C:\Users\84935\AppData\Local\Temp\ccHwlaHS.s 			page 14


 450              		.align	2
 451              	.L29:
 452 0054 00380140 		.word	1073821696
 453 0058 00000000 		.word	.LANCHOR0
 454 005c 00000000 		.word	.LANCHOR3
 455 0060 00000000 		.word	.LANCHOR4
 456 0064 00000000 		.word	.LANCHOR5
 457 0068 00000000 		.word	.LC1
 458              		.cfi_endproc
 459              	.LFE70:
 461              		.section	.text.Error_Handler,"ax",%progbits
 462              		.align	1
 463              		.global	Error_Handler
 464              		.syntax unified
 465              		.thumb
 466              		.thumb_func
 468              	Error_Handler:
 469              	.LFB76:
 238:Core/Src/main.c **** 
 239:Core/Src/main.c **** /* USER CODE BEGIN 4 */
 240:Core/Src/main.c **** 
 241:Core/Src/main.c **** /* USER CODE END 4 */
 242:Core/Src/main.c **** 
 243:Core/Src/main.c **** /**
 244:Core/Src/main.c ****   * @brief  This function is executed in case of error occurrence.
 245:Core/Src/main.c ****   * @retval None
 246:Core/Src/main.c ****   */
 247:Core/Src/main.c **** void Error_Handler(void)
 248:Core/Src/main.c **** {
 470              		.loc 1 248 1 is_stmt 1 view -0
 471              		.cfi_startproc
 472              		@ Volatile: function does not return.
 473              		@ args = 0, pretend = 0, frame = 0
 474              		@ frame_needed = 0, uses_anonymous_args = 0
 475              		@ link register save eliminated.
 249:Core/Src/main.c ****   /* USER CODE BEGIN Error_Handler_Debug */
 250:Core/Src/main.c ****   /* User can add his own implementation to report the HAL error return state */
 251:Core/Src/main.c ****   __disable_irq();
 476              		.loc 1 251 3 view .LVU98
 477              	.LBB8:
 478              	.LBI8:
 479              		.file 2 "Drivers/CMSIS/Include/cmsis_gcc.h"
   1:Drivers/CMSIS/Include/cmsis_gcc.h **** /**************************************************************************//**
   2:Drivers/CMSIS/Include/cmsis_gcc.h ****  * @file     cmsis_gcc.h
   3:Drivers/CMSIS/Include/cmsis_gcc.h ****  * @brief    CMSIS compiler GCC header file
   4:Drivers/CMSIS/Include/cmsis_gcc.h ****  * @version  V5.0.4
   5:Drivers/CMSIS/Include/cmsis_gcc.h ****  * @date     09. April 2018
   6:Drivers/CMSIS/Include/cmsis_gcc.h ****  ******************************************************************************/
   7:Drivers/CMSIS/Include/cmsis_gcc.h **** /*
   8:Drivers/CMSIS/Include/cmsis_gcc.h ****  * Copyright (c) 2009-2018 Arm Limited. All rights reserved.
   9:Drivers/CMSIS/Include/cmsis_gcc.h ****  *
  10:Drivers/CMSIS/Include/cmsis_gcc.h ****  * SPDX-License-Identifier: Apache-2.0
  11:Drivers/CMSIS/Include/cmsis_gcc.h ****  *
  12:Drivers/CMSIS/Include/cmsis_gcc.h ****  * Licensed under the Apache License, Version 2.0 (the License); you may
  13:Drivers/CMSIS/Include/cmsis_gcc.h ****  * not use this file except in compliance with the License.
  14:Drivers/CMSIS/Include/cmsis_gcc.h ****  * You may obtain a copy of the License at
  15:Drivers/CMSIS/Include/cmsis_gcc.h ****  *
ARM GAS  C:\Users\84935\AppData\Local\Temp\ccHwlaHS.s 			page 15


  16:Drivers/CMSIS/Include/cmsis_gcc.h ****  * www.apache.org/licenses/LICENSE-2.0
  17:Drivers/CMSIS/Include/cmsis_gcc.h ****  *
  18:Drivers/CMSIS/Include/cmsis_gcc.h ****  * Unless required by applicable law or agreed to in writing, software
  19:Drivers/CMSIS/Include/cmsis_gcc.h ****  * distributed under the License is distributed on an AS IS BASIS, WITHOUT
  20:Drivers/CMSIS/Include/cmsis_gcc.h ****  * WARRANTIES OR CONDITIONS OF ANY KIND, either express or implied.
  21:Drivers/CMSIS/Include/cmsis_gcc.h ****  * See the License for the specific language governing permissions and
  22:Drivers/CMSIS/Include/cmsis_gcc.h ****  * limitations under the License.
  23:Drivers/CMSIS/Include/cmsis_gcc.h ****  */
  24:Drivers/CMSIS/Include/cmsis_gcc.h **** 
  25:Drivers/CMSIS/Include/cmsis_gcc.h **** #ifndef __CMSIS_GCC_H
  26:Drivers/CMSIS/Include/cmsis_gcc.h **** #define __CMSIS_GCC_H
  27:Drivers/CMSIS/Include/cmsis_gcc.h **** 
  28:Drivers/CMSIS/Include/cmsis_gcc.h **** /* ignore some GCC warnings */
  29:Drivers/CMSIS/Include/cmsis_gcc.h **** #pragma GCC diagnostic push
  30:Drivers/CMSIS/Include/cmsis_gcc.h **** #pragma GCC diagnostic ignored "-Wsign-conversion"
  31:Drivers/CMSIS/Include/cmsis_gcc.h **** #pragma GCC diagnostic ignored "-Wconversion"
  32:Drivers/CMSIS/Include/cmsis_gcc.h **** #pragma GCC diagnostic ignored "-Wunused-parameter"
  33:Drivers/CMSIS/Include/cmsis_gcc.h **** 
  34:Drivers/CMSIS/Include/cmsis_gcc.h **** /* Fallback for __has_builtin */
  35:Drivers/CMSIS/Include/cmsis_gcc.h **** #ifndef __has_builtin
  36:Drivers/CMSIS/Include/cmsis_gcc.h ****   #define __has_builtin(x) (0)
  37:Drivers/CMSIS/Include/cmsis_gcc.h **** #endif
  38:Drivers/CMSIS/Include/cmsis_gcc.h **** 
  39:Drivers/CMSIS/Include/cmsis_gcc.h **** /* CMSIS compiler specific defines */
  40:Drivers/CMSIS/Include/cmsis_gcc.h **** #ifndef   __ASM
  41:Drivers/CMSIS/Include/cmsis_gcc.h ****   #define __ASM                                  __asm
  42:Drivers/CMSIS/Include/cmsis_gcc.h **** #endif
  43:Drivers/CMSIS/Include/cmsis_gcc.h **** #ifndef   __INLINE
  44:Drivers/CMSIS/Include/cmsis_gcc.h ****   #define __INLINE                               inline
  45:Drivers/CMSIS/Include/cmsis_gcc.h **** #endif
  46:Drivers/CMSIS/Include/cmsis_gcc.h **** #ifndef   __STATIC_INLINE
  47:Drivers/CMSIS/Include/cmsis_gcc.h ****   #define __STATIC_INLINE                        static inline
  48:Drivers/CMSIS/Include/cmsis_gcc.h **** #endif
  49:Drivers/CMSIS/Include/cmsis_gcc.h **** #ifndef   __STATIC_FORCEINLINE                 
  50:Drivers/CMSIS/Include/cmsis_gcc.h ****   #define __STATIC_FORCEINLINE                   __attribute__((always_inline)) static inline
  51:Drivers/CMSIS/Include/cmsis_gcc.h **** #endif                                           
  52:Drivers/CMSIS/Include/cmsis_gcc.h **** #ifndef   __NO_RETURN
  53:Drivers/CMSIS/Include/cmsis_gcc.h ****   #define __NO_RETURN                            __attribute__((__noreturn__))
  54:Drivers/CMSIS/Include/cmsis_gcc.h **** #endif
  55:Drivers/CMSIS/Include/cmsis_gcc.h **** #ifndef   __USED
  56:Drivers/CMSIS/Include/cmsis_gcc.h ****   #define __USED                                 __attribute__((used))
  57:Drivers/CMSIS/Include/cmsis_gcc.h **** #endif
  58:Drivers/CMSIS/Include/cmsis_gcc.h **** #ifndef   __WEAK
  59:Drivers/CMSIS/Include/cmsis_gcc.h ****   #define __WEAK                                 __attribute__((weak))
  60:Drivers/CMSIS/Include/cmsis_gcc.h **** #endif
  61:Drivers/CMSIS/Include/cmsis_gcc.h **** #ifndef   __PACKED
  62:Drivers/CMSIS/Include/cmsis_gcc.h ****   #define __PACKED                               __attribute__((packed, aligned(1)))
  63:Drivers/CMSIS/Include/cmsis_gcc.h **** #endif
  64:Drivers/CMSIS/Include/cmsis_gcc.h **** #ifndef   __PACKED_STRUCT
  65:Drivers/CMSIS/Include/cmsis_gcc.h ****   #define __PACKED_STRUCT                        struct __attribute__((packed, aligned(1)))
  66:Drivers/CMSIS/Include/cmsis_gcc.h **** #endif
  67:Drivers/CMSIS/Include/cmsis_gcc.h **** #ifndef   __PACKED_UNION
  68:Drivers/CMSIS/Include/cmsis_gcc.h ****   #define __PACKED_UNION                         union __attribute__((packed, aligned(1)))
  69:Drivers/CMSIS/Include/cmsis_gcc.h **** #endif
  70:Drivers/CMSIS/Include/cmsis_gcc.h **** #ifndef   __UNALIGNED_UINT32        /* deprecated */
  71:Drivers/CMSIS/Include/cmsis_gcc.h ****   #pragma GCC diagnostic push
  72:Drivers/CMSIS/Include/cmsis_gcc.h ****   #pragma GCC diagnostic ignored "-Wpacked"
ARM GAS  C:\Users\84935\AppData\Local\Temp\ccHwlaHS.s 			page 16


  73:Drivers/CMSIS/Include/cmsis_gcc.h ****   #pragma GCC diagnostic ignored "-Wattributes"
  74:Drivers/CMSIS/Include/cmsis_gcc.h ****   struct __attribute__((packed)) T_UINT32 { uint32_t v; };
  75:Drivers/CMSIS/Include/cmsis_gcc.h ****   #pragma GCC diagnostic pop
  76:Drivers/CMSIS/Include/cmsis_gcc.h ****   #define __UNALIGNED_UINT32(x)                  (((struct T_UINT32 *)(x))->v)
  77:Drivers/CMSIS/Include/cmsis_gcc.h **** #endif
  78:Drivers/CMSIS/Include/cmsis_gcc.h **** #ifndef   __UNALIGNED_UINT16_WRITE
  79:Drivers/CMSIS/Include/cmsis_gcc.h ****   #pragma GCC diagnostic push
  80:Drivers/CMSIS/Include/cmsis_gcc.h ****   #pragma GCC diagnostic ignored "-Wpacked"
  81:Drivers/CMSIS/Include/cmsis_gcc.h ****   #pragma GCC diagnostic ignored "-Wattributes"
  82:Drivers/CMSIS/Include/cmsis_gcc.h ****   __PACKED_STRUCT T_UINT16_WRITE { uint16_t v; };
  83:Drivers/CMSIS/Include/cmsis_gcc.h ****   #pragma GCC diagnostic pop
  84:Drivers/CMSIS/Include/cmsis_gcc.h ****   #define __UNALIGNED_UINT16_WRITE(addr, val)    (void)((((struct T_UINT16_WRITE *)(void *)(addr))-
  85:Drivers/CMSIS/Include/cmsis_gcc.h **** #endif
  86:Drivers/CMSIS/Include/cmsis_gcc.h **** #ifndef   __UNALIGNED_UINT16_READ
  87:Drivers/CMSIS/Include/cmsis_gcc.h ****   #pragma GCC diagnostic push
  88:Drivers/CMSIS/Include/cmsis_gcc.h ****   #pragma GCC diagnostic ignored "-Wpacked"
  89:Drivers/CMSIS/Include/cmsis_gcc.h ****   #pragma GCC diagnostic ignored "-Wattributes"
  90:Drivers/CMSIS/Include/cmsis_gcc.h ****   __PACKED_STRUCT T_UINT16_READ { uint16_t v; };
  91:Drivers/CMSIS/Include/cmsis_gcc.h ****   #pragma GCC diagnostic pop
  92:Drivers/CMSIS/Include/cmsis_gcc.h ****   #define __UNALIGNED_UINT16_READ(addr)          (((const struct T_UINT16_READ *)(const void *)(add
  93:Drivers/CMSIS/Include/cmsis_gcc.h **** #endif
  94:Drivers/CMSIS/Include/cmsis_gcc.h **** #ifndef   __UNALIGNED_UINT32_WRITE
  95:Drivers/CMSIS/Include/cmsis_gcc.h ****   #pragma GCC diagnostic push
  96:Drivers/CMSIS/Include/cmsis_gcc.h ****   #pragma GCC diagnostic ignored "-Wpacked"
  97:Drivers/CMSIS/Include/cmsis_gcc.h ****   #pragma GCC diagnostic ignored "-Wattributes"
  98:Drivers/CMSIS/Include/cmsis_gcc.h ****   __PACKED_STRUCT T_UINT32_WRITE { uint32_t v; };
  99:Drivers/CMSIS/Include/cmsis_gcc.h ****   #pragma GCC diagnostic pop
 100:Drivers/CMSIS/Include/cmsis_gcc.h ****   #define __UNALIGNED_UINT32_WRITE(addr, val)    (void)((((struct T_UINT32_WRITE *)(void *)(addr))-
 101:Drivers/CMSIS/Include/cmsis_gcc.h **** #endif
 102:Drivers/CMSIS/Include/cmsis_gcc.h **** #ifndef   __UNALIGNED_UINT32_READ
 103:Drivers/CMSIS/Include/cmsis_gcc.h ****   #pragma GCC diagnostic push
 104:Drivers/CMSIS/Include/cmsis_gcc.h ****   #pragma GCC diagnostic ignored "-Wpacked"
 105:Drivers/CMSIS/Include/cmsis_gcc.h ****   #pragma GCC diagnostic ignored "-Wattributes"
 106:Drivers/CMSIS/Include/cmsis_gcc.h ****   __PACKED_STRUCT T_UINT32_READ { uint32_t v; };
 107:Drivers/CMSIS/Include/cmsis_gcc.h ****   #pragma GCC diagnostic pop
 108:Drivers/CMSIS/Include/cmsis_gcc.h ****   #define __UNALIGNED_UINT32_READ(addr)          (((const struct T_UINT32_READ *)(const void *)(add
 109:Drivers/CMSIS/Include/cmsis_gcc.h **** #endif
 110:Drivers/CMSIS/Include/cmsis_gcc.h **** #ifndef   __ALIGNED
 111:Drivers/CMSIS/Include/cmsis_gcc.h ****   #define __ALIGNED(x)                           __attribute__((aligned(x)))
 112:Drivers/CMSIS/Include/cmsis_gcc.h **** #endif
 113:Drivers/CMSIS/Include/cmsis_gcc.h **** #ifndef   __RESTRICT
 114:Drivers/CMSIS/Include/cmsis_gcc.h ****   #define __RESTRICT                             __restrict
 115:Drivers/CMSIS/Include/cmsis_gcc.h **** #endif
 116:Drivers/CMSIS/Include/cmsis_gcc.h **** 
 117:Drivers/CMSIS/Include/cmsis_gcc.h **** 
 118:Drivers/CMSIS/Include/cmsis_gcc.h **** /* ###########################  Core Function Access  ########################### */
 119:Drivers/CMSIS/Include/cmsis_gcc.h **** /** \ingroup  CMSIS_Core_FunctionInterface
 120:Drivers/CMSIS/Include/cmsis_gcc.h ****     \defgroup CMSIS_Core_RegAccFunctions CMSIS Core Register Access Functions
 121:Drivers/CMSIS/Include/cmsis_gcc.h ****   @{
 122:Drivers/CMSIS/Include/cmsis_gcc.h ****  */
 123:Drivers/CMSIS/Include/cmsis_gcc.h **** 
 124:Drivers/CMSIS/Include/cmsis_gcc.h **** /**
 125:Drivers/CMSIS/Include/cmsis_gcc.h ****   \brief   Enable IRQ Interrupts
 126:Drivers/CMSIS/Include/cmsis_gcc.h ****   \details Enables IRQ interrupts by clearing the I-bit in the CPSR.
 127:Drivers/CMSIS/Include/cmsis_gcc.h ****            Can only be executed in Privileged modes.
 128:Drivers/CMSIS/Include/cmsis_gcc.h ****  */
 129:Drivers/CMSIS/Include/cmsis_gcc.h **** __STATIC_FORCEINLINE void __enable_irq(void)
ARM GAS  C:\Users\84935\AppData\Local\Temp\ccHwlaHS.s 			page 17


 130:Drivers/CMSIS/Include/cmsis_gcc.h **** {
 131:Drivers/CMSIS/Include/cmsis_gcc.h ****   __ASM volatile ("cpsie i" : : : "memory");
 132:Drivers/CMSIS/Include/cmsis_gcc.h **** }
 133:Drivers/CMSIS/Include/cmsis_gcc.h **** 
 134:Drivers/CMSIS/Include/cmsis_gcc.h **** 
 135:Drivers/CMSIS/Include/cmsis_gcc.h **** /**
 136:Drivers/CMSIS/Include/cmsis_gcc.h ****   \brief   Disable IRQ Interrupts
 137:Drivers/CMSIS/Include/cmsis_gcc.h ****   \details Disables IRQ interrupts by setting the I-bit in the CPSR.
 138:Drivers/CMSIS/Include/cmsis_gcc.h ****            Can only be executed in Privileged modes.
 139:Drivers/CMSIS/Include/cmsis_gcc.h ****  */
 140:Drivers/CMSIS/Include/cmsis_gcc.h **** __STATIC_FORCEINLINE void __disable_irq(void)
 480              		.loc 2 140 27 view .LVU99
 481              	.LBB9:
 141:Drivers/CMSIS/Include/cmsis_gcc.h **** {
 142:Drivers/CMSIS/Include/cmsis_gcc.h ****   __ASM volatile ("cpsid i" : : : "memory");
 482              		.loc 2 142 3 view .LVU100
 483              		.syntax unified
 484              	@ 142 "Drivers/CMSIS/Include/cmsis_gcc.h" 1
 485 0000 72B6     		cpsid i
 486              	@ 0 "" 2
 487              		.thumb
 488              		.syntax unified
 489              	.L32:
 490              	.LBE9:
 491              	.LBE8:
 252:Core/Src/main.c ****   while (1)
 492              		.loc 1 252 3 discriminator 1 view .LVU101
 253:Core/Src/main.c ****   {
 254:Core/Src/main.c ****   }
 493              		.loc 1 254 3 discriminator 1 view .LVU102
 252:Core/Src/main.c ****   while (1)
 494              		.loc 1 252 9 discriminator 1 view .LVU103
 495 0002 FEE7     		b	.L32
 496              		.cfi_endproc
 497              	.LFE76:
 499              		.section	.text.MX_USART1_UART_Init,"ax",%progbits
 500              		.align	1
 501              		.syntax unified
 502              		.thumb
 503              		.thumb_func
 505              	MX_USART1_UART_Init:
 506              	.LFB73:
 156:Core/Src/main.c **** 
 507              		.loc 1 156 1 view -0
 508              		.cfi_startproc
 509              		@ args = 0, pretend = 0, frame = 0
 510              		@ frame_needed = 0, uses_anonymous_args = 0
 511 0000 08B5     		push	{r3, lr}
 512              	.LCFI12:
 513              		.cfi_def_cfa_offset 8
 514              		.cfi_offset 3, -8
 515              		.cfi_offset 14, -4
 165:Core/Src/main.c ****   huart1.Init.BaudRate = 9600;
 516              		.loc 1 165 3 view .LVU105
 165:Core/Src/main.c ****   huart1.Init.BaudRate = 9600;
 517              		.loc 1 165 19 is_stmt 0 view .LVU106
 518 0002 0A48     		ldr	r0, .L37
ARM GAS  C:\Users\84935\AppData\Local\Temp\ccHwlaHS.s 			page 18


 519 0004 0A4B     		ldr	r3, .L37+4
 520 0006 0360     		str	r3, [r0]
 166:Core/Src/main.c ****   huart1.Init.WordLength = UART_WORDLENGTH_8B;
 521              		.loc 1 166 3 is_stmt 1 view .LVU107
 166:Core/Src/main.c ****   huart1.Init.WordLength = UART_WORDLENGTH_8B;
 522              		.loc 1 166 24 is_stmt 0 view .LVU108
 523 0008 4FF41653 		mov	r3, #9600
 524 000c 4360     		str	r3, [r0, #4]
 167:Core/Src/main.c ****   huart1.Init.StopBits = UART_STOPBITS_1;
 525              		.loc 1 167 3 is_stmt 1 view .LVU109
 167:Core/Src/main.c ****   huart1.Init.StopBits = UART_STOPBITS_1;
 526              		.loc 1 167 26 is_stmt 0 view .LVU110
 527 000e 0023     		movs	r3, #0
 528 0010 8360     		str	r3, [r0, #8]
 168:Core/Src/main.c ****   huart1.Init.Parity = UART_PARITY_NONE;
 529              		.loc 1 168 3 is_stmt 1 view .LVU111
 168:Core/Src/main.c ****   huart1.Init.Parity = UART_PARITY_NONE;
 530              		.loc 1 168 24 is_stmt 0 view .LVU112
 531 0012 C360     		str	r3, [r0, #12]
 169:Core/Src/main.c ****   huart1.Init.Mode = UART_MODE_TX_RX;
 532              		.loc 1 169 3 is_stmt 1 view .LVU113
 169:Core/Src/main.c ****   huart1.Init.Mode = UART_MODE_TX_RX;
 533              		.loc 1 169 22 is_stmt 0 view .LVU114
 534 0014 0361     		str	r3, [r0, #16]
 170:Core/Src/main.c ****   huart1.Init.HwFlowCtl = UART_HWCONTROL_NONE;
 535              		.loc 1 170 3 is_stmt 1 view .LVU115
 170:Core/Src/main.c ****   huart1.Init.HwFlowCtl = UART_HWCONTROL_NONE;
 536              		.loc 1 170 20 is_stmt 0 view .LVU116
 537 0016 0C22     		movs	r2, #12
 538 0018 4261     		str	r2, [r0, #20]
 171:Core/Src/main.c ****   huart1.Init.OverSampling = UART_OVERSAMPLING_16;
 539              		.loc 1 171 3 is_stmt 1 view .LVU117
 171:Core/Src/main.c ****   huart1.Init.OverSampling = UART_OVERSAMPLING_16;
 540              		.loc 1 171 25 is_stmt 0 view .LVU118
 541 001a 8361     		str	r3, [r0, #24]
 172:Core/Src/main.c ****   if (HAL_UART_Init(&huart1) != HAL_OK)
 542              		.loc 1 172 3 is_stmt 1 view .LVU119
 172:Core/Src/main.c ****   if (HAL_UART_Init(&huart1) != HAL_OK)
 543              		.loc 1 172 28 is_stmt 0 view .LVU120
 544 001c C361     		str	r3, [r0, #28]
 173:Core/Src/main.c ****   {
 545              		.loc 1 173 3 is_stmt 1 view .LVU121
 173:Core/Src/main.c ****   {
 546              		.loc 1 173 7 is_stmt 0 view .LVU122
 547 001e FFF7FEFF 		bl	HAL_UART_Init
 548              	.LVL30:
 173:Core/Src/main.c ****   {
 549              		.loc 1 173 6 view .LVU123
 550 0022 00B9     		cbnz	r0, .L36
 181:Core/Src/main.c **** 
 551              		.loc 1 181 1 view .LVU124
 552 0024 08BD     		pop	{r3, pc}
 553              	.L36:
 175:Core/Src/main.c ****   }
 554              		.loc 1 175 5 is_stmt 1 view .LVU125
 555 0026 FFF7FEFF 		bl	Error_Handler
 556              	.LVL31:
ARM GAS  C:\Users\84935\AppData\Local\Temp\ccHwlaHS.s 			page 19


 557              	.L38:
 558 002a 00BF     		.align	2
 559              	.L37:
 560 002c 00000000 		.word	.LANCHOR3
 561 0030 00380140 		.word	1073821696
 562              		.cfi_endproc
 563              	.LFE73:
 565              		.section	.text.SystemClock_Config,"ax",%progbits
 566              		.align	1
 567              		.global	SystemClock_Config
 568              		.syntax unified
 569              		.thumb
 570              		.thumb_func
 572              	SystemClock_Config:
 573              	.LFB72:
 116:Core/Src/main.c ****   RCC_OscInitTypeDef RCC_OscInitStruct = {0};
 574              		.loc 1 116 1 view -0
 575              		.cfi_startproc
 576              		@ args = 0, pretend = 0, frame = 64
 577              		@ frame_needed = 0, uses_anonymous_args = 0
 578 0000 00B5     		push	{lr}
 579              	.LCFI13:
 580              		.cfi_def_cfa_offset 4
 581              		.cfi_offset 14, -4
 582 0002 91B0     		sub	sp, sp, #68
 583              	.LCFI14:
 584              		.cfi_def_cfa_offset 72
 117:Core/Src/main.c ****   RCC_ClkInitTypeDef RCC_ClkInitStruct = {0};
 585              		.loc 1 117 3 view .LVU127
 117:Core/Src/main.c ****   RCC_ClkInitTypeDef RCC_ClkInitStruct = {0};
 586              		.loc 1 117 22 is_stmt 0 view .LVU128
 587 0004 2822     		movs	r2, #40
 588 0006 0021     		movs	r1, #0
 589 0008 06A8     		add	r0, sp, #24
 590 000a FFF7FEFF 		bl	memset
 591              	.LVL32:
 118:Core/Src/main.c **** 
 592              		.loc 1 118 3 is_stmt 1 view .LVU129
 118:Core/Src/main.c **** 
 593              		.loc 1 118 22 is_stmt 0 view .LVU130
 594 000e 0023     		movs	r3, #0
 595 0010 0193     		str	r3, [sp, #4]
 596 0012 0293     		str	r3, [sp, #8]
 597 0014 0393     		str	r3, [sp, #12]
 598 0016 0493     		str	r3, [sp, #16]
 599 0018 0593     		str	r3, [sp, #20]
 123:Core/Src/main.c ****   RCC_OscInitStruct.HSEState = RCC_HSE_ON;
 600              		.loc 1 123 3 is_stmt 1 view .LVU131
 123:Core/Src/main.c ****   RCC_OscInitStruct.HSEState = RCC_HSE_ON;
 601              		.loc 1 123 36 is_stmt 0 view .LVU132
 602 001a 0122     		movs	r2, #1
 603 001c 0692     		str	r2, [sp, #24]
 124:Core/Src/main.c ****   RCC_OscInitStruct.HSEPredivValue = RCC_HSE_PREDIV_DIV1;
 604              		.loc 1 124 3 is_stmt 1 view .LVU133
 124:Core/Src/main.c ****   RCC_OscInitStruct.HSEPredivValue = RCC_HSE_PREDIV_DIV1;
 605              		.loc 1 124 30 is_stmt 0 view .LVU134
 606 001e 4FF48033 		mov	r3, #65536
ARM GAS  C:\Users\84935\AppData\Local\Temp\ccHwlaHS.s 			page 20


 607 0022 0793     		str	r3, [sp, #28]
 125:Core/Src/main.c ****   RCC_OscInitStruct.HSIState = RCC_HSI_ON;
 608              		.loc 1 125 3 is_stmt 1 view .LVU135
 126:Core/Src/main.c ****   RCC_OscInitStruct.PLL.PLLState = RCC_PLL_ON;
 609              		.loc 1 126 3 view .LVU136
 126:Core/Src/main.c ****   RCC_OscInitStruct.PLL.PLLState = RCC_PLL_ON;
 610              		.loc 1 126 30 is_stmt 0 view .LVU137
 611 0024 0A92     		str	r2, [sp, #40]
 127:Core/Src/main.c ****   RCC_OscInitStruct.PLL.PLLSource = RCC_PLLSOURCE_HSE;
 612              		.loc 1 127 3 is_stmt 1 view .LVU138
 127:Core/Src/main.c ****   RCC_OscInitStruct.PLL.PLLSource = RCC_PLLSOURCE_HSE;
 613              		.loc 1 127 34 is_stmt 0 view .LVU139
 614 0026 0222     		movs	r2, #2
 615 0028 0D92     		str	r2, [sp, #52]
 128:Core/Src/main.c ****   RCC_OscInitStruct.PLL.PLLMUL = RCC_PLL_MUL9;
 616              		.loc 1 128 3 is_stmt 1 view .LVU140
 128:Core/Src/main.c ****   RCC_OscInitStruct.PLL.PLLMUL = RCC_PLL_MUL9;
 617              		.loc 1 128 35 is_stmt 0 view .LVU141
 618 002a 0E93     		str	r3, [sp, #56]
 129:Core/Src/main.c ****   if (HAL_RCC_OscConfig(&RCC_OscInitStruct) != HAL_OK)
 619              		.loc 1 129 3 is_stmt 1 view .LVU142
 129:Core/Src/main.c ****   if (HAL_RCC_OscConfig(&RCC_OscInitStruct) != HAL_OK)
 620              		.loc 1 129 32 is_stmt 0 view .LVU143
 621 002c 4FF4E013 		mov	r3, #1835008
 622 0030 0F93     		str	r3, [sp, #60]
 130:Core/Src/main.c ****   {
 623              		.loc 1 130 3 is_stmt 1 view .LVU144
 130:Core/Src/main.c ****   {
 624              		.loc 1 130 7 is_stmt 0 view .LVU145
 625 0032 06A8     		add	r0, sp, #24
 626 0034 FFF7FEFF 		bl	HAL_RCC_OscConfig
 627              	.LVL33:
 130:Core/Src/main.c ****   {
 628              		.loc 1 130 6 view .LVU146
 629 0038 80B9     		cbnz	r0, .L43
 137:Core/Src/main.c ****                               |RCC_CLOCKTYPE_PCLK1|RCC_CLOCKTYPE_PCLK2;
 630              		.loc 1 137 3 is_stmt 1 view .LVU147
 137:Core/Src/main.c ****                               |RCC_CLOCKTYPE_PCLK1|RCC_CLOCKTYPE_PCLK2;
 631              		.loc 1 137 31 is_stmt 0 view .LVU148
 632 003a 0F23     		movs	r3, #15
 633 003c 0193     		str	r3, [sp, #4]
 139:Core/Src/main.c ****   RCC_ClkInitStruct.AHBCLKDivider = RCC_SYSCLK_DIV1;
 634              		.loc 1 139 3 is_stmt 1 view .LVU149
 139:Core/Src/main.c ****   RCC_ClkInitStruct.AHBCLKDivider = RCC_SYSCLK_DIV1;
 635              		.loc 1 139 34 is_stmt 0 view .LVU150
 636 003e 0221     		movs	r1, #2
 637 0040 0291     		str	r1, [sp, #8]
 140:Core/Src/main.c ****   RCC_ClkInitStruct.APB1CLKDivider = RCC_HCLK_DIV2;
 638              		.loc 1 140 3 is_stmt 1 view .LVU151
 140:Core/Src/main.c ****   RCC_ClkInitStruct.APB1CLKDivider = RCC_HCLK_DIV2;
 639              		.loc 1 140 35 is_stmt 0 view .LVU152
 640 0042 0023     		movs	r3, #0
 641 0044 0393     		str	r3, [sp, #12]
 141:Core/Src/main.c ****   RCC_ClkInitStruct.APB2CLKDivider = RCC_HCLK_DIV1;
 642              		.loc 1 141 3 is_stmt 1 view .LVU153
 141:Core/Src/main.c ****   RCC_ClkInitStruct.APB2CLKDivider = RCC_HCLK_DIV1;
 643              		.loc 1 141 36 is_stmt 0 view .LVU154
ARM GAS  C:\Users\84935\AppData\Local\Temp\ccHwlaHS.s 			page 21


 644 0046 4FF48062 		mov	r2, #1024
 645 004a 0492     		str	r2, [sp, #16]
 142:Core/Src/main.c **** 
 646              		.loc 1 142 3 is_stmt 1 view .LVU155
 142:Core/Src/main.c **** 
 647              		.loc 1 142 36 is_stmt 0 view .LVU156
 648 004c 0593     		str	r3, [sp, #20]
 144:Core/Src/main.c ****   {
 649              		.loc 1 144 3 is_stmt 1 view .LVU157
 144:Core/Src/main.c ****   {
 650              		.loc 1 144 7 is_stmt 0 view .LVU158
 651 004e 01A8     		add	r0, sp, #4
 652 0050 FFF7FEFF 		bl	HAL_RCC_ClockConfig
 653              	.LVL34:
 144:Core/Src/main.c ****   {
 654              		.loc 1 144 6 view .LVU159
 655 0054 20B9     		cbnz	r0, .L44
 148:Core/Src/main.c **** 
 656              		.loc 1 148 1 view .LVU160
 657 0056 11B0     		add	sp, sp, #68
 658              	.LCFI15:
 659              		.cfi_remember_state
 660              		.cfi_def_cfa_offset 4
 661              		@ sp needed
 662 0058 5DF804FB 		ldr	pc, [sp], #4
 663              	.L43:
 664              	.LCFI16:
 665              		.cfi_restore_state
 132:Core/Src/main.c ****   }
 666              		.loc 1 132 5 is_stmt 1 view .LVU161
 667 005c FFF7FEFF 		bl	Error_Handler
 668              	.LVL35:
 669              	.L44:
 146:Core/Src/main.c ****   }
 670              		.loc 1 146 5 view .LVU162
 671 0060 FFF7FEFF 		bl	Error_Handler
 672              	.LVL36:
 673              		.cfi_endproc
 674              	.LFE72:
 676              		.section	.text.main,"ax",%progbits
 677              		.align	1
 678              		.global	main
 679              		.syntax unified
 680              		.thumb
 681              		.thumb_func
 683              	main:
 684              	.LFB68:
  44:Core/Src/main.c ****   // System initialization
 685              		.loc 1 44 1 view -0
 686              		.cfi_startproc
 687              		@ Volatile: function does not return.
 688              		@ args = 0, pretend = 0, frame = 0
 689              		@ frame_needed = 0, uses_anonymous_args = 0
 690 0000 08B5     		push	{r3, lr}
 691              	.LCFI17:
 692              		.cfi_def_cfa_offset 8
 693              		.cfi_offset 3, -8
ARM GAS  C:\Users\84935\AppData\Local\Temp\ccHwlaHS.s 			page 22


 694              		.cfi_offset 14, -4
  46:Core/Src/main.c ****   SystemClock_Config();
 695              		.loc 1 46 3 view .LVU164
 696 0002 FFF7FEFF 		bl	HAL_Init
 697              	.LVL37:
  47:Core/Src/main.c ****   MX_GPIO_Init();
 698              		.loc 1 47 3 view .LVU165
 699 0006 FFF7FEFF 		bl	SystemClock_Config
 700              	.LVL38:
  48:Core/Src/main.c ****   MX_DMA_Init();
 701              		.loc 1 48 3 view .LVU166
 702 000a FFF7FEFF 		bl	MX_GPIO_Init
 703              	.LVL39:
  49:Core/Src/main.c ****   MX_USART1_UART_Init();
 704              		.loc 1 49 3 view .LVU167
 705 000e FFF7FEFF 		bl	MX_DMA_Init
 706              	.LVL40:
  50:Core/Src/main.c ****   
 707              		.loc 1 50 3 view .LVU168
 708 0012 FFF7FEFF 		bl	MX_USART1_UART_Init
 709              	.LVL41:
  53:Core/Src/main.c ****   // Disable the half transfer interrupt
 710              		.loc 1 53 3 view .LVU169
 711 0016 0522     		movs	r2, #5
 712 0018 0A49     		ldr	r1, .L49
 713 001a 0B48     		ldr	r0, .L49+4
 714 001c FFF7FEFF 		bl	HAL_UARTEx_ReceiveToIdle_DMA
 715              	.LVL42:
  55:Core/Src/main.c ****   // Initiate the step motor connection
 716              		.loc 1 55 3 view .LVU170
 717 0020 0A4B     		ldr	r3, .L49+8
 718 0022 1A68     		ldr	r2, [r3]
 719 0024 1368     		ldr	r3, [r2]
 720 0026 23F00403 		bic	r3, r3, #4
 721 002a 1360     		str	r3, [r2]
  57:Core/Src/main.c **** 
 722              		.loc 1 57 3 view .LVU171
 723 002c FFF7FEFF 		bl	stepInit
 724              	.LVL43:
 725              	.L46:
  59:Core/Src/main.c ****   {
 726              		.loc 1 59 3 view .LVU172
  61:Core/Src/main.c ****       speedCtrl(rcv_buffer[0]);
 727              		.loc 1 61 5 view .LVU173
  61:Core/Src/main.c ****       speedCtrl(rcv_buffer[0]);
 728              		.loc 1 61 13 is_stmt 0 view .LVU174
 729 0030 074B     		ldr	r3, .L49+12
 730 0032 1B78     		ldrb	r3, [r3]	@ zero_extendqisi2
  61:Core/Src/main.c ****       speedCtrl(rcv_buffer[0]);
 731              		.loc 1 61 7 view .LVU175
 732 0034 012B     		cmp	r3, #1
 733 0036 FBD1     		bne	.L46
  62:Core/Src/main.c ****   }
 734              		.loc 1 62 7 is_stmt 1 view .LVU176
 735 0038 024B     		ldr	r3, .L49
 736 003a 1878     		ldrb	r0, [r3]	@ zero_extendqisi2
 737 003c FFF7FEFF 		bl	speedCtrl
ARM GAS  C:\Users\84935\AppData\Local\Temp\ccHwlaHS.s 			page 23


 738              	.LVL44:
 739 0040 F6E7     		b	.L46
 740              	.L50:
 741 0042 00BF     		.align	2
 742              	.L49:
 743 0044 00000000 		.word	.LANCHOR0
 744 0048 00000000 		.word	.LANCHOR3
 745 004c 00000000 		.word	.LANCHOR4
 746 0050 00000000 		.word	.LANCHOR2
 747              		.cfi_endproc
 748              	.LFE68:
 750              		.global	dir
 751              		.global	mode
 752              		.global	send_msg
 753              		.global	rcv_buffer
 754              		.global	hdma_usart1_rx
 755              		.global	huart1
 756              		.section	.bss.hdma_usart1_rx,"aw",%nobits
 757              		.align	2
 758              		.set	.LANCHOR4,. + 0
 761              	hdma_usart1_rx:
 762 0000 00000000 		.space	68
 762      00000000 
 762      00000000 
 762      00000000 
 762      00000000 
 763              		.section	.bss.huart1,"aw",%nobits
 764              		.align	2
 765              		.set	.LANCHOR3,. + 0
 768              	huart1:
 769 0000 00000000 		.space	72
 769      00000000 
 769      00000000 
 769      00000000 
 769      00000000 
 770              		.section	.bss.mode,"aw",%nobits
 771              		.set	.LANCHOR2,. + 0
 774              	mode:
 775 0000 00       		.space	1
 776              		.section	.bss.rcv_buffer,"aw",%nobits
 777              		.align	2
 778              		.set	.LANCHOR0,. + 0
 781              	rcv_buffer:
 782 0000 00000000 		.space	5
 782      00
 783              		.section	.bss.send_msg,"aw",%nobits
 784              		.align	2
 785              		.set	.LANCHOR5,. + 0
 788              	send_msg:
 789 0000 00000000 		.space	30
 789      00000000 
 789      00000000 
 789      00000000 
 789      00000000 
 790              		.section	.data.dir,"aw"
 791              		.set	.LANCHOR1,. + 0
 794              	dir:
ARM GAS  C:\Users\84935\AppData\Local\Temp\ccHwlaHS.s 			page 24


 795 0000 01       		.byte	1
 796              		.text
 797              	.Letext0:
 798              		.file 3 "c:\\users\\84935\\stm32f103c8t6\\tools\\gcc-arm-none-eabi-10.3-2021.10-win32\\gcc-arm-non
 799              		.file 4 "c:\\users\\84935\\stm32f103c8t6\\tools\\gcc-arm-none-eabi-10.3-2021.10-win32\\gcc-arm-non
 800              		.file 5 "Drivers/CMSIS/Device/ST/STM32F1xx/Include/stm32f103xb.h"
 801              		.file 6 "Drivers/STM32F1xx_HAL_Driver/Inc/stm32f1xx_hal_def.h"
 802              		.file 7 "Drivers/STM32F1xx_HAL_Driver/Inc/stm32f1xx_hal_rcc.h"
 803              		.file 8 "Drivers/STM32F1xx_HAL_Driver/Inc/stm32f1xx_hal_rcc_ex.h"
 804              		.file 9 "Drivers/STM32F1xx_HAL_Driver/Inc/stm32f1xx_hal_gpio.h"
 805              		.file 10 "Drivers/STM32F1xx_HAL_Driver/Inc/stm32f1xx_hal_dma.h"
 806              		.file 11 "Drivers/STM32F1xx_HAL_Driver/Inc/stm32f1xx_hal_uart.h"
 807              		.file 12 "Core/Src/../../ECUAL/StepMotor/StepMotor.h"
 808              		.file 13 "Drivers/STM32F1xx_HAL_Driver/Inc/stm32f1xx_hal_cortex.h"
 809              		.file 14 "c:\\users\\84935\\stm32f103c8t6\\tools\\gcc-arm-none-eabi-10.3-2021.10-win32\\gcc-arm-no
 810              		.file 15 "c:\\users\\84935\\stm32f103c8t6\\tools\\gcc-arm-none-eabi-10.3-2021.10-win32\\gcc-arm-no
 811              		.file 16 "c:\\users\\84935\\stm32f103c8t6\\tools\\gcc-arm-none-eabi-10.3-2021.10-win32\\gcc-arm-no
 812              		.file 17 "Drivers/STM32F1xx_HAL_Driver/Inc/stm32f1xx_hal.h"
 813              		.file 18 "<built-in>"
ARM GAS  C:\Users\84935\AppData\Local\Temp\ccHwlaHS.s 			page 25


DEFINED SYMBOLS
                            *ABS*:00000000 main.c
C:\Users\84935\AppData\Local\Temp\ccHwlaHS.s:18     .text.MX_GPIO_Init:00000000 $t
C:\Users\84935\AppData\Local\Temp\ccHwlaHS.s:23     .text.MX_GPIO_Init:00000000 MX_GPIO_Init
C:\Users\84935\AppData\Local\Temp\ccHwlaHS.s:154    .text.MX_GPIO_Init:00000090 $d
C:\Users\84935\AppData\Local\Temp\ccHwlaHS.s:161    .text.MX_DMA_Init:00000000 $t
C:\Users\84935\AppData\Local\Temp\ccHwlaHS.s:166    .text.MX_DMA_Init:00000000 MX_DMA_Init
C:\Users\84935\AppData\Local\Temp\ccHwlaHS.s:214    .text.MX_DMA_Init:00000030 $d
C:\Users\84935\AppData\Local\Temp\ccHwlaHS.s:219    .text.HAL_GPIO_EXTI_Callback:00000000 $t
C:\Users\84935\AppData\Local\Temp\ccHwlaHS.s:225    .text.HAL_GPIO_EXTI_Callback:00000000 HAL_GPIO_EXTI_Callback
C:\Users\84935\AppData\Local\Temp\ccHwlaHS.s:253    .rodata.commandExec.str1.4:00000000 $d
C:\Users\84935\AppData\Local\Temp\ccHwlaHS.s:257    .text.commandExec:00000000 $t
C:\Users\84935\AppData\Local\Temp\ccHwlaHS.s:263    .text.commandExec:00000000 commandExec
C:\Users\84935\AppData\Local\Temp\ccHwlaHS.s:346    .text.commandExec:0000004c $d
C:\Users\84935\AppData\Local\Temp\ccHwlaHS.s:355    .rodata.HAL_UARTEx_RxEventCallback.str1.4:00000000 $d
C:\Users\84935\AppData\Local\Temp\ccHwlaHS.s:359    .text.HAL_UARTEx_RxEventCallback:00000000 $t
C:\Users\84935\AppData\Local\Temp\ccHwlaHS.s:365    .text.HAL_UARTEx_RxEventCallback:00000000 HAL_UARTEx_RxEventCallback
C:\Users\84935\AppData\Local\Temp\ccHwlaHS.s:452    .text.HAL_UARTEx_RxEventCallback:00000054 $d
C:\Users\84935\AppData\Local\Temp\ccHwlaHS.s:462    .text.Error_Handler:00000000 $t
C:\Users\84935\AppData\Local\Temp\ccHwlaHS.s:468    .text.Error_Handler:00000000 Error_Handler
C:\Users\84935\AppData\Local\Temp\ccHwlaHS.s:500    .text.MX_USART1_UART_Init:00000000 $t
C:\Users\84935\AppData\Local\Temp\ccHwlaHS.s:505    .text.MX_USART1_UART_Init:00000000 MX_USART1_UART_Init
C:\Users\84935\AppData\Local\Temp\ccHwlaHS.s:560    .text.MX_USART1_UART_Init:0000002c $d
C:\Users\84935\AppData\Local\Temp\ccHwlaHS.s:566    .text.SystemClock_Config:00000000 $t
C:\Users\84935\AppData\Local\Temp\ccHwlaHS.s:572    .text.SystemClock_Config:00000000 SystemClock_Config
C:\Users\84935\AppData\Local\Temp\ccHwlaHS.s:677    .text.main:00000000 $t
C:\Users\84935\AppData\Local\Temp\ccHwlaHS.s:683    .text.main:00000000 main
C:\Users\84935\AppData\Local\Temp\ccHwlaHS.s:743    .text.main:00000044 $d
C:\Users\84935\AppData\Local\Temp\ccHwlaHS.s:794    .data.dir:00000000 dir
C:\Users\84935\AppData\Local\Temp\ccHwlaHS.s:774    .bss.mode:00000000 mode
C:\Users\84935\AppData\Local\Temp\ccHwlaHS.s:788    .bss.send_msg:00000000 send_msg
C:\Users\84935\AppData\Local\Temp\ccHwlaHS.s:781    .bss.rcv_buffer:00000000 rcv_buffer
C:\Users\84935\AppData\Local\Temp\ccHwlaHS.s:761    .bss.hdma_usart1_rx:00000000 hdma_usart1_rx
C:\Users\84935\AppData\Local\Temp\ccHwlaHS.s:768    .bss.huart1:00000000 huart1
C:\Users\84935\AppData\Local\Temp\ccHwlaHS.s:757    .bss.hdma_usart1_rx:00000000 $d
C:\Users\84935\AppData\Local\Temp\ccHwlaHS.s:764    .bss.huart1:00000000 $d
C:\Users\84935\AppData\Local\Temp\ccHwlaHS.s:775    .bss.mode:00000000 $d
C:\Users\84935\AppData\Local\Temp\ccHwlaHS.s:777    .bss.rcv_buffer:00000000 $d
C:\Users\84935\AppData\Local\Temp\ccHwlaHS.s:784    .bss.send_msg:00000000 $d

UNDEFINED SYMBOLS
HAL_GPIO_WritePin
HAL_GPIO_Init
HAL_NVIC_SetPriority
HAL_NVIC_EnableIRQ
brake
changeDir
HAL_UART_Transmit
atoi
angle2Step
positionCtrl
HAL_UARTEx_ReceiveToIdle_DMA
sprintf
strlen
HAL_UART_Init
memset
HAL_RCC_OscConfig
ARM GAS  C:\Users\84935\AppData\Local\Temp\ccHwlaHS.s 			page 26


HAL_RCC_ClockConfig
HAL_Init
stepInit
speedCtrl
